
Optional file libmchp_peripheral.a not found

Optional file libmchp_peripheral_32MX170F256B.a not found
Archive member included because of file (symbol)

/Applications/microchip/xc32/v2.50/bin/bin/../../lib/gcc/pic32mx/4.8.3/libgcc.a(floatunsidf.o)
                              build/FrameworkWith_u8g2/production/ProjectSource/TVS.o (__floatunsidf)
/Applications/microchip/xc32/v2.50/bin/bin/../../lib/gcc/pic32mx/4.8.3/../../../../pic32mx/lib/libpic32.a(memset.o)
                              build/FrameworkWith_u8g2/production/ProjectSource/CommsRx.o (memset)
/Applications/microchip/xc32/v2.50/bin/bin/../../lib/gcc/pic32mx/4.8.3/../../../../pic32mx/lib/libpic32.a(default-bootstrap-exception-handler.o)
                              /var/folders/0c/nzpv5tdd6fd7x9vsgqwt8kmc0000gn/T//ccdT9R1U.o (_bootstrap_exception_handler)
/Applications/microchip/xc32/v2.50/bin/bin/../../lib/gcc/pic32mx/4.8.3/../../../../pic32mx/lib/libpic32.a(default-on-reset.o)
                              /var/folders/0c/nzpv5tdd6fd7x9vsgqwt8kmc0000gn/T//ccdT9R1U.o (_on_reset)
/Applications/microchip/xc32/v2.50/bin/bin/../../lib/gcc/pic32mx/4.8.3/../../../../pic32mx/lib/libpic32.a(default-on-bootstrap.o)
                              /var/folders/0c/nzpv5tdd6fd7x9vsgqwt8kmc0000gn/T//ccdT9R1U.o (_on_bootstrap)
/Applications/microchip/xc32/v2.50/bin/bin/../../lib/gcc/pic32mx/4.8.3/../../../../pic32mx/lib/libpic32.a(default-nmi-handler.o)
                              /var/folders/0c/nzpv5tdd6fd7x9vsgqwt8kmc0000gn/T//ccdT9R1U.o (_nmi_handler)
/Applications/microchip/xc32/v2.50/bin/bin/../../lib/gcc/pic32mx/4.8.3/../../../../pic32mx/lib/libpic32.a(xc32_uart.o)
                              build/FrameworkWith_u8g2/production/FrameworkSource/terminal.o (__XC_UART)
/Applications/microchip/xc32/v2.50/bin/bin/../../lib/gcc/pic32mx/4.8.3/../../../../pic32mx/lib/libpic32.a(pic32_data_init.o)
                              /var/folders/0c/nzpv5tdd6fd7x9vsgqwt8kmc0000gn/T//ccdT9R1U.o (__pic32_data_init)
/Applications/microchip/xc32/v2.50/bin/bin/../../lib/gcc/pic32mx/4.8.3/../../../../pic32mx/lib/libpic32.a(general-exception.o)
                              /var/folders/0c/nzpv5tdd6fd7x9vsgqwt8kmc0000gn/T//ccdT9R1U.o (_general_exception_context)
/Applications/microchip/xc32/v2.50/bin/bin/../../lib/gcc/pic32mx/4.8.3/../../../../pic32mx/lib/libpic32.a(vector1.o)
                              /var/folders/0c/nzpv5tdd6fd7x9vsgqwt8kmc0000gn/T//cc4RWdc2.o (__vector_dispatch_1)
/Applications/microchip/xc32/v2.50/bin/bin/../../lib/gcc/pic32mx/4.8.3/../../../../pic32mx/lib/libpic32.a(vector2.o)
                              /var/folders/0c/nzpv5tdd6fd7x9vsgqwt8kmc0000gn/T//cc4RWdc2.o (__vector_dispatch_2)
/Applications/microchip/xc32/v2.50/bin/bin/../../lib/gcc/pic32mx/4.8.3/../../../../pic32mx/lib/libpic32.a(vector3.o)
                              /var/folders/0c/nzpv5tdd6fd7x9vsgqwt8kmc0000gn/T//cc4RWdc2.o (__vector_dispatch_3)
/Applications/microchip/xc32/v2.50/bin/bin/../../lib/gcc/pic32mx/4.8.3/../../../../pic32mx/lib/libpic32.a(vector4.o)
                              /var/folders/0c/nzpv5tdd6fd7x9vsgqwt8kmc0000gn/T//cc4RWdc2.o (__vector_dispatch_4)
/Applications/microchip/xc32/v2.50/bin/bin/../../lib/gcc/pic32mx/4.8.3/../../../../pic32mx/lib/libpic32.a(vector5.o)
                              /var/folders/0c/nzpv5tdd6fd7x9vsgqwt8kmc0000gn/T//cc4RWdc2.o (__vector_dispatch_5)
/Applications/microchip/xc32/v2.50/bin/bin/../../lib/gcc/pic32mx/4.8.3/../../../../pic32mx/lib/libpic32.a(vector6.o)
                              /var/folders/0c/nzpv5tdd6fd7x9vsgqwt8kmc0000gn/T//cc4RWdc2.o (__vector_dispatch_6)
/Applications/microchip/xc32/v2.50/bin/bin/../../lib/gcc/pic32mx/4.8.3/../../../../pic32mx/lib/libpic32.a(vector7.o)
                              /var/folders/0c/nzpv5tdd6fd7x9vsgqwt8kmc0000gn/T//cc4RWdc2.o (__vector_dispatch_7)
/Applications/microchip/xc32/v2.50/bin/bin/../../lib/gcc/pic32mx/4.8.3/../../../../pic32mx/lib/libpic32.a(vector9.o)
                              /var/folders/0c/nzpv5tdd6fd7x9vsgqwt8kmc0000gn/T//cc4RWdc2.o (__vector_dispatch_9)
/Applications/microchip/xc32/v2.50/bin/bin/../../lib/gcc/pic32mx/4.8.3/../../../../pic32mx/lib/libpic32.a(vector10.o)
                              /var/folders/0c/nzpv5tdd6fd7x9vsgqwt8kmc0000gn/T//cc4RWdc2.o (__vector_dispatch_10)
/Applications/microchip/xc32/v2.50/bin/bin/../../lib/gcc/pic32mx/4.8.3/../../../../pic32mx/lib/libpic32.a(vector11.o)
                              /var/folders/0c/nzpv5tdd6fd7x9vsgqwt8kmc0000gn/T//cc4RWdc2.o (__vector_dispatch_11)
/Applications/microchip/xc32/v2.50/bin/bin/../../lib/gcc/pic32mx/4.8.3/../../../../pic32mx/lib/libpic32.a(vector12.o)
                              /var/folders/0c/nzpv5tdd6fd7x9vsgqwt8kmc0000gn/T//cc4RWdc2.o (__vector_dispatch_12)
/Applications/microchip/xc32/v2.50/bin/bin/../../lib/gcc/pic32mx/4.8.3/../../../../pic32mx/lib/libpic32.a(vector13.o)
                              /var/folders/0c/nzpv5tdd6fd7x9vsgqwt8kmc0000gn/T//cc4RWdc2.o (__vector_dispatch_13)
/Applications/microchip/xc32/v2.50/bin/bin/../../lib/gcc/pic32mx/4.8.3/../../../../pic32mx/lib/libpic32.a(vector14.o)
                              /var/folders/0c/nzpv5tdd6fd7x9vsgqwt8kmc0000gn/T//cc4RWdc2.o (__vector_dispatch_14)
/Applications/microchip/xc32/v2.50/bin/bin/../../lib/gcc/pic32mx/4.8.3/../../../../pic32mx/lib/libpic32.a(vector15.o)
                              /var/folders/0c/nzpv5tdd6fd7x9vsgqwt8kmc0000gn/T//cc4RWdc2.o (__vector_dispatch_15)
/Applications/microchip/xc32/v2.50/bin/bin/../../lib/gcc/pic32mx/4.8.3/../../../../pic32mx/lib/libpic32.a(vector16.o)
                              /var/folders/0c/nzpv5tdd6fd7x9vsgqwt8kmc0000gn/T//cc4RWdc2.o (__vector_dispatch_16)
/Applications/microchip/xc32/v2.50/bin/bin/../../lib/gcc/pic32mx/4.8.3/../../../../pic32mx/lib/libpic32.a(vector17.o)
                              /var/folders/0c/nzpv5tdd6fd7x9vsgqwt8kmc0000gn/T//cc4RWdc2.o (__vector_dispatch_17)
/Applications/microchip/xc32/v2.50/bin/bin/../../lib/gcc/pic32mx/4.8.3/../../../../pic32mx/lib/libpic32.a(vector18.o)
                              /var/folders/0c/nzpv5tdd6fd7x9vsgqwt8kmc0000gn/T//cc4RWdc2.o (__vector_dispatch_18)
/Applications/microchip/xc32/v2.50/bin/bin/../../lib/gcc/pic32mx/4.8.3/../../../../pic32mx/lib/libpic32.a(vector19.o)
                              /var/folders/0c/nzpv5tdd6fd7x9vsgqwt8kmc0000gn/T//cc4RWdc2.o (__vector_dispatch_19)
/Applications/microchip/xc32/v2.50/bin/bin/../../lib/gcc/pic32mx/4.8.3/../../../../pic32mx/lib/libpic32.a(vector20.o)
                              /var/folders/0c/nzpv5tdd6fd7x9vsgqwt8kmc0000gn/T//cc4RWdc2.o (__vector_dispatch_20)
/Applications/microchip/xc32/v2.50/bin/bin/../../lib/gcc/pic32mx/4.8.3/../../../../pic32mx/lib/libpic32.a(vector21.o)
                              /var/folders/0c/nzpv5tdd6fd7x9vsgqwt8kmc0000gn/T//cc4RWdc2.o (__vector_dispatch_21)
/Applications/microchip/xc32/v2.50/bin/bin/../../lib/gcc/pic32mx/4.8.3/../../../../pic32mx/lib/libpic32.a(vector22.o)
                              /var/folders/0c/nzpv5tdd6fd7x9vsgqwt8kmc0000gn/T//cc4RWdc2.o (__vector_dispatch_22)
/Applications/microchip/xc32/v2.50/bin/bin/../../lib/gcc/pic32mx/4.8.3/../../../../pic32mx/lib/libpic32.a(vector23.o)
                              /var/folders/0c/nzpv5tdd6fd7x9vsgqwt8kmc0000gn/T//cc4RWdc2.o (__vector_dispatch_23)
/Applications/microchip/xc32/v2.50/bin/bin/../../lib/gcc/pic32mx/4.8.3/../../../../pic32mx/lib/libpic32.a(vector24.o)
                              /var/folders/0c/nzpv5tdd6fd7x9vsgqwt8kmc0000gn/T//cc4RWdc2.o (__vector_dispatch_24)
/Applications/microchip/xc32/v2.50/bin/bin/../../lib/gcc/pic32mx/4.8.3/../../../../pic32mx/lib/libpic32.a(vector25.o)
                              /var/folders/0c/nzpv5tdd6fd7x9vsgqwt8kmc0000gn/T//cc4RWdc2.o (__vector_dispatch_25)
/Applications/microchip/xc32/v2.50/bin/bin/../../lib/gcc/pic32mx/4.8.3/../../../../pic32mx/lib/libpic32.a(vector26.o)
                              /var/folders/0c/nzpv5tdd6fd7x9vsgqwt8kmc0000gn/T//cc4RWdc2.o (__vector_dispatch_26)
/Applications/microchip/xc32/v2.50/bin/bin/../../lib/gcc/pic32mx/4.8.3/../../../../pic32mx/lib/libpic32.a(vector27.o)
                              /var/folders/0c/nzpv5tdd6fd7x9vsgqwt8kmc0000gn/T//cc8qu792.o (__vector_dispatch_27)
/Applications/microchip/xc32/v2.50/bin/bin/../../lib/gcc/pic32mx/4.8.3/../../../../pic32mx/lib/libpic32.a(vector28.o)
                              /var/folders/0c/nzpv5tdd6fd7x9vsgqwt8kmc0000gn/T//cc8qu792.o (__vector_dispatch_28)
/Applications/microchip/xc32/v2.50/bin/bin/../../lib/gcc/pic32mx/4.8.3/../../../../pic32mx/lib/libpic32.a(vector29.o)
                              /var/folders/0c/nzpv5tdd6fd7x9vsgqwt8kmc0000gn/T//cc8qu792.o (__vector_dispatch_29)
/Applications/microchip/xc32/v2.50/bin/bin/../../lib/gcc/pic32mx/4.8.3/../../../../pic32mx/lib/libpic32.a(vector30.o)
                              /var/folders/0c/nzpv5tdd6fd7x9vsgqwt8kmc0000gn/T//cc8qu792.o (__vector_dispatch_30)
/Applications/microchip/xc32/v2.50/bin/bin/../../lib/gcc/pic32mx/4.8.3/../../../../pic32mx/lib/libpic32.a(vector31.o)
                              /var/folders/0c/nzpv5tdd6fd7x9vsgqwt8kmc0000gn/T//cc8qu792.o (__vector_dispatch_31)
/Applications/microchip/xc32/v2.50/bin/bin/../../lib/gcc/pic32mx/4.8.3/../../../../pic32mx/lib/libpic32.a(vector32.o)
                              /var/folders/0c/nzpv5tdd6fd7x9vsgqwt8kmc0000gn/T//cc8qu792.o (__vector_dispatch_32)
/Applications/microchip/xc32/v2.50/bin/bin/../../lib/gcc/pic32mx/4.8.3/../../../../pic32mx/lib/libpic32.a(vector33.o)
                              /var/folders/0c/nzpv5tdd6fd7x9vsgqwt8kmc0000gn/T//cc8qu792.o (__vector_dispatch_33)
/Applications/microchip/xc32/v2.50/bin/bin/../../lib/gcc/pic32mx/4.8.3/../../../../pic32mx/lib/libpic32.a(vector34.o)
                              /var/folders/0c/nzpv5tdd6fd7x9vsgqwt8kmc0000gn/T//cc8qu792.o (__vector_dispatch_34)
/Applications/microchip/xc32/v2.50/bin/bin/../../lib/gcc/pic32mx/4.8.3/../../../../pic32mx/lib/libpic32.a(vector35.o)
                              /var/folders/0c/nzpv5tdd6fd7x9vsgqwt8kmc0000gn/T//cc8qu792.o (__vector_dispatch_35)
/Applications/microchip/xc32/v2.50/bin/bin/../../lib/gcc/pic32mx/4.8.3/../../../../pic32mx/lib/libpic32.a(vector36.o)
                              /var/folders/0c/nzpv5tdd6fd7x9vsgqwt8kmc0000gn/T//cc8qu792.o (__vector_dispatch_36)
/Applications/microchip/xc32/v2.50/bin/bin/../../lib/gcc/pic32mx/4.8.3/../../../../pic32mx/lib/libpic32.a(vector38.o)
                              /var/folders/0c/nzpv5tdd6fd7x9vsgqwt8kmc0000gn/T//cc8qu792.o (__vector_dispatch_38)
/Applications/microchip/xc32/v2.50/bin/bin/../../lib/gcc/pic32mx/4.8.3/../../../../pic32mx/lib/libpic32.a(vector39.o)
                              /var/folders/0c/nzpv5tdd6fd7x9vsgqwt8kmc0000gn/T//cc8qu792.o (__vector_dispatch_39)
/Applications/microchip/xc32/v2.50/bin/bin/../../lib/gcc/pic32mx/4.8.3/../../../../pic32mx/lib/libpic32.a(vector40.o)
                              /var/folders/0c/nzpv5tdd6fd7x9vsgqwt8kmc0000gn/T//cc8qu792.o (__vector_dispatch_40)
/Applications/microchip/xc32/v2.50/bin/bin/../../lib/gcc/pic32mx/4.8.3/../../../../pic32mx/lib/libpic32.a(vector41.o)
                              /var/folders/0c/nzpv5tdd6fd7x9vsgqwt8kmc0000gn/T//cc8qu792.o (__vector_dispatch_41)
/Applications/microchip/xc32/v2.50/bin/bin/../../lib/gcc/pic32mx/4.8.3/../../../../pic32mx/lib/libpic32.a(vector42.o)
                              /var/folders/0c/nzpv5tdd6fd7x9vsgqwt8kmc0000gn/T//cc8qu792.o (__vector_dispatch_42)
/Applications/microchip/xc32/v2.50/bin/bin/../../lib/gcc/pic32mx/4.8.3/../../../../pic32mx/lib/libpic32.a(vector43.o)
                              /var/folders/0c/nzpv5tdd6fd7x9vsgqwt8kmc0000gn/T//cc8qu792.o (__vector_dispatch_43)
/Applications/microchip/xc32/v2.50/bin/bin/../../lib/gcc/pic32mx/4.8.3/../../../../pic32mx/lib/libpic32.a(default-general-exception-handler.o)
                              /Applications/microchip/xc32/v2.50/bin/bin/../../lib/gcc/pic32mx/4.8.3/../../../../pic32mx/lib/libpic32.a(general-exception.o) (_general_exception_handler)
/Applications/microchip/xc32/v2.50/bin/bin/../../lib/gcc/pic32mx/4.8.3/../../../../pic32mx/lib/libpic32.a(defaultinterrupt.o)
                              /Applications/microchip/xc32/v2.50/bin/bin/../../lib/gcc/pic32mx/4.8.3/../../../../pic32mx/lib/libpic32.a(vector1.o) (_DefaultInterrupt)
/Applications/microchip/xc32/v2.50/bin/bin/../../lib/gcc/pic32mx/4.8.3/../../../../pic32mx/lib/liblega-c.a(fputc.o)
                              build/FrameworkWith_u8g2/production/ProjectSource/PackDataHandler.o (putchar)
/Applications/microchip/xc32/v2.50/bin/bin/../../lib/gcc/pic32mx/4.8.3/../../../../pic32mx/lib/liblega-c.a(fputs.o)
                              build/FrameworkWith_u8g2/production/ProjectSource/main.o (puts)
/Applications/microchip/xc32/v2.50/bin/bin/../../lib/gcc/pic32mx/4.8.3/../../../../pic32mx/lib/liblega-c.a(printf_cdfFnopuxX.eo)
                              (_printf_cdfFnopuxX)
/Applications/microchip/xc32/v2.50/bin/bin/../../lib/gcc/pic32mx/4.8.3/../../../../pic32mx/lib/liblega-c.a(printf_cdnopuxX.eo)
                              build/FrameworkWith_u8g2/production/ProjectSource/Comms.o (_printf_cdnopuxX)
/Applications/microchip/xc32/v2.50/bin/bin/../../lib/gcc/pic32mx/4.8.3/../../../../pic32mx/lib/liblega-c.a(printf_fF.eo)
                              build/FrameworkWith_u8g2/production/ProjectSource/TVS.o (_printf_fF)
/Applications/microchip/xc32/v2.50/bin/bin/../../lib/gcc/pic32mx/4.8.3/../../../../pic32mx/lib/liblega-c.a(strlen.o)
                              /Applications/microchip/xc32/v2.50/bin/bin/../../lib/gcc/pic32mx/4.8.3/../../../../pic32mx/lib/liblega-c.a(fputs.o) (strlen)
/Applications/microchip/xc32/v2.50/bin/bin/../../lib/gcc/pic32mx/4.8.3/../../../../pic32mx/lib/liblega-c.a(_doprnt_cdfFnopuxX.eo)
                              /Applications/microchip/xc32/v2.50/bin/bin/../../lib/gcc/pic32mx/4.8.3/../../../../pic32mx/lib/liblega-c.a(printf_cdfFnopuxX.eo) (_do_print_cdfFnopuxX)
/Applications/microchip/xc32/v2.50/bin/bin/../../lib/gcc/pic32mx/4.8.3/../../../../pic32mx/lib/liblega-c.a(_doprnt_cdnopuxX.eo)
                              /Applications/microchip/xc32/v2.50/bin/bin/../../lib/gcc/pic32mx/4.8.3/../../../../pic32mx/lib/liblega-c.a(printf_cdnopuxX.eo) (_do_print_cdnopuxX)
/Applications/microchip/xc32/v2.50/bin/bin/../../lib/gcc/pic32mx/4.8.3/../../../../pic32mx/lib/liblega-c.a(_doprnt_fF.eo)
                              /Applications/microchip/xc32/v2.50/bin/bin/../../lib/gcc/pic32mx/4.8.3/../../../../pic32mx/lib/liblega-c.a(printf_fF.eo) (_do_print_fF)
/Applications/microchip/xc32/v2.50/bin/bin/../../lib/gcc/pic32mx/4.8.3/../../../../pic32mx/lib/liblega-c.a(_iobdata.o)
                              /Applications/microchip/xc32/v2.50/bin/bin/../../lib/gcc/pic32mx/4.8.3/../../../../pic32mx/lib/liblega-c.a(fputc.o) (_libc_data)
/Applications/microchip/xc32/v2.50/bin/bin/../../lib/gcc/pic32mx/4.8.3/../../../../pic32mx/lib/liblega-c.a(_iobfuncs.o)
                              /Applications/microchip/xc32/v2.50/bin/bin/../../lib/gcc/pic32mx/4.8.3/../../../../pic32mx/lib/liblega-c.a(_iobdata.o) (_filbuf_simple)
/Applications/microchip/xc32/v2.50/bin/bin/../../lib/gcc/pic32mx/4.8.3/../../../../pic32mx/lib/liblega-c.a(errno.o)
                              /Applications/microchip/xc32/v2.50/bin/bin/../../lib/gcc/pic32mx/4.8.3/../../../../pic32mx/lib/liblega-c.a(_iobfuncs.o) (errno)
/Applications/microchip/xc32/v2.50/bin/bin/../../lib/gcc/pic32mx/4.8.3/../../../../pic32mx/lib/libm.a(dpmodf.o)
                              /Applications/microchip/xc32/v2.50/bin/bin/../../lib/gcc/pic32mx/4.8.3/../../../../pic32mx/lib/liblega-c.a(_doprnt_cdfFnopuxX.eo) (modfl)
/Applications/microchip/xc32/v2.50/bin/bin/../../lib/gcc/pic32mx/4.8.3/../../../../pic32mx/lib/libm.a(cos32.o)
                              build/FrameworkWith_u8g2/production/ProjectSource/TVS.o (cosl)
/Applications/microchip/xc32/v2.50/bin/bin/../../lib/gcc/pic32mx/4.8.3/../../../../pic32mx/lib/libm.a(dp32div.o)
                              build/FrameworkWith_u8g2/production/ProjectSource/TVS.o (dpdiv)
/Applications/microchip/xc32/v2.50/bin/bin/../../lib/gcc/pic32mx/4.8.3/../../../../pic32mx/lib/libm.a(dp32mul.o)
                              build/FrameworkWith_u8g2/production/ProjectSource/TVS.o (dpmul)
/Applications/microchip/xc32/v2.50/bin/bin/../../lib/gcc/pic32mx/4.8.3/../../../../pic32mx/lib/libm.a(dp32subadd.o)
                              build/FrameworkWith_u8g2/production/ProjectSource/ZENER.o (dpadd)
/Applications/microchip/xc32/v2.50/bin/bin/../../lib/gcc/pic32mx/4.8.3/../../../../pic32mx/lib/libm.a(dpcmp.o)
                              build/FrameworkWith_u8g2/production/ProjectSource/ZENER.o (dpcmp)
/Applications/microchip/xc32/v2.50/bin/bin/../../lib/gcc/pic32mx/4.8.3/../../../../pic32mx/lib/libm.a(dptofp.o)
                              build/FrameworkWith_u8g2/production/ProjectSource/TVS.o (dptofp)
/Applications/microchip/xc32/v2.50/bin/bin/../../lib/gcc/pic32mx/4.8.3/../../../../pic32mx/lib/libm.a(dptoli.o)
                              build/FrameworkWith_u8g2/production/ProjectSource/TVS.o (dptoli)
/Applications/microchip/xc32/v2.50/bin/bin/../../lib/gcc/pic32mx/4.8.3/../../../../pic32mx/lib/libm.a(exmul.o)
                              /Applications/microchip/xc32/v2.50/bin/bin/../../lib/gcc/pic32mx/4.8.3/../../../../pic32mx/lib/libm.a(cos32.o) (exmul)
/Applications/microchip/xc32/v2.50/bin/bin/../../lib/gcc/pic32mx/4.8.3/../../../../pic32mx/lib/libm.a(fp32div.o)
                              build/FrameworkWith_u8g2/production/ProjectSource/TVS.o (fpdiv)
/Applications/microchip/xc32/v2.50/bin/bin/../../lib/gcc/pic32mx/4.8.3/../../../../pic32mx/lib/libm.a(fp32mul.o)
                              build/FrameworkWith_u8g2/production/ProjectSource/TVS.o (fpmul)
/Applications/microchip/xc32/v2.50/bin/bin/../../lib/gcc/pic32mx/4.8.3/../../../../pic32mx/lib/libm.a(fpcmp.o)
                              build/FrameworkWith_u8g2/production/ProjectSource/TVS.o (fpcmp)
/Applications/microchip/xc32/v2.50/bin/bin/../../lib/gcc/pic32mx/4.8.3/../../../../pic32mx/lib/libm.a(fptodp.o)
                              build/FrameworkWith_u8g2/production/ProjectSource/TVS.o (fptodp)
/Applications/microchip/xc32/v2.50/bin/bin/../../lib/gcc/pic32mx/4.8.3/../../../../pic32mx/lib/libm.a(fptoli.o)
                              build/FrameworkWith_u8g2/production/ProjectSource/ZENER.o (fptosi)
/Applications/microchip/xc32/v2.50/bin/bin/../../lib/gcc/pic32mx/4.8.3/../../../../pic32mx/lib/libm.a(fptoul.o)
                              build/FrameworkWith_u8g2/production/ProjectSource/TVS.o (fptoui)
/Applications/microchip/xc32/v2.50/bin/bin/../../lib/gcc/pic32mx/4.8.3/../../../../pic32mx/lib/libm.a(litodp.o)
                              build/FrameworkWith_u8g2/production/ProjectSource/ZENER.o (litodp)
/Applications/microchip/xc32/v2.50/bin/bin/../../lib/gcc/pic32mx/4.8.3/../../../../pic32mx/lib/libm.a(reduct32.o)
                              /Applications/microchip/xc32/v2.50/bin/bin/../../lib/gcc/pic32mx/4.8.3/../../../../pic32mx/lib/libm.a(cos32.o) (reduct)
/Applications/microchip/xc32/v2.50/bin/bin/../../lib/gcc/pic32mx/4.8.3/../../../../pic32mx/lib/libm.a(sigmax.o)
                              /Applications/microchip/xc32/v2.50/bin/bin/../../lib/gcc/pic32mx/4.8.3/../../../../pic32mx/lib/libm.a(cos32.o) (sigmax)
/Applications/microchip/xc32/v2.50/bin/bin/../../lib/gcc/pic32mx/4.8.3/../../../../pic32mx/lib/libm.a(sin32.o)
                              build/FrameworkWith_u8g2/production/ProjectSource/TVS.o (sinl)
/Applications/microchip/xc32/v2.50/bin/bin/../../lib/gcc/pic32mx/4.8.3/../../../../pic32mx/lib/libm.a(sincos32.o)
                              /Applications/microchip/xc32/v2.50/bin/bin/../../lib/gcc/pic32mx/4.8.3/../../../../pic32mx/lib/libm.a(cos32.o) (sincon)
/Applications/microchip/xc32/v2.50/bin/bin/../../lib/gcc/pic32mx/4.8.3/../../../../pic32mx/lib/libm.a(sitofp.o)
                              build/FrameworkWith_u8g2/production/ProjectSource/ZENER.o (sitofp)
/Applications/microchip/xc32/v2.50/bin/bin/../../lib/gcc/pic32mx/4.8.3/../../../../pic32mx/lib/libm.a(w_sqrt.o)
                              build/FrameworkWith_u8g2/production/ProjectSource/ZENER.o (sqrtl)
/Applications/microchip/xc32/v2.50/bin/bin/../../lib/gcc/pic32mx/4.8.3/../../../../pic32mx/lib/libm.a(dpsqrt.o)
                              /Applications/microchip/xc32/v2.50/bin/bin/../../lib/gcc/pic32mx/4.8.3/../../../../pic32mx/lib/libm.a(w_sqrt.o) (__mchp_sqrt)
/Applications/microchip/xc32/v2.50/bin/bin/../../lib/gcc/pic32mx/4.8.3/../../../../pic32mx/lib/libm.a(exsqrt.o)
                              /Applications/microchip/xc32/v2.50/bin/bin/../../lib/gcc/pic32mx/4.8.3/../../../../pic32mx/lib/libm.a(dpsqrt.o) (exsqrt)
/Applications/microchip/xc32/v2.50/bin/bin/../../lib/gcc/pic32mx/4.8.3/../../../../pic32mx/lib/libm.a(fpexsqrt32.o)
                              /Applications/microchip/xc32/v2.50/bin/bin/../../lib/gcc/pic32mx/4.8.3/../../../../pic32mx/lib/libm.a(exsqrt.o) (fpexsqrt)
/Applications/microchip/xc32/v2.50/bin/bin/../../lib/gcc/pic32mx/4.8.3/../../../../pic32mx/lib/libm.a(s_lib_ver.o)
                              /Applications/microchip/xc32/v2.50/bin/bin/../../lib/gcc/pic32mx/4.8.3/../../../../pic32mx/lib/libm.a(w_sqrt.o) (math_errhandling)
/Applications/microchip/xc32/v2.50/bin/bin/../../lib/gcc/pic32mx/4.8.3/libgcc.a(_udivdi3.o)
                              /Applications/microchip/xc32/v2.50/bin/bin/../../lib/gcc/pic32mx/4.8.3/../../../../pic32mx/lib/liblega-c.a(_doprnt_cdfFnopuxX.eo) (__udivdi3)
/Applications/microchip/xc32/v2.50/bin/bin/../../lib/gcc/pic32mx/4.8.3/libgcc.a(_umoddi3.o)
                              /Applications/microchip/xc32/v2.50/bin/bin/../../lib/gcc/pic32mx/4.8.3/../../../../pic32mx/lib/liblega-c.a(_doprnt_cdfFnopuxX.eo) (__umoddi3)
/Applications/microchip/xc32/v2.50/bin/bin/../../lib/gcc/pic32mx/4.8.3/../../../../pic32mx/lib/libpic32.a(_mon_getc.o)
                              /Applications/microchip/xc32/v2.50/bin/bin/../../lib/gcc/pic32mx/4.8.3/../../../../pic32mx/lib/liblega-c.a(_iobfuncs.o) (_mon_getc)
/Applications/microchip/xc32/v2.50/bin/bin/../../lib/gcc/pic32mx/4.8.3/../../../../pic32mx/lib/libpic32.a(_mon_write.o)
                              /Applications/microchip/xc32/v2.50/bin/bin/../../lib/gcc/pic32mx/4.8.3/../../../../pic32mx/lib/liblega-c.a(_iobfuncs.o) (_mon_write)
/Applications/microchip/xc32/v2.50/bin/bin/../../lib/gcc/pic32mx/4.8.3/../../../../pic32mx/lib/libpic32.a(_mon_putc.o)
                              /Applications/microchip/xc32/v2.50/bin/bin/../../lib/gcc/pic32mx/4.8.3/../../../../pic32mx/lib/libpic32.a(_mon_write.o) (_mon_putc)

Allocating common symbols
Common symbol       size              file

TransmitNum         0x1               build/FrameworkWith_u8g2/production/FrameworkSource/ES_Timers.o
OPAMP_ACTIVE        0x1               build/FrameworkWith_u8g2/production/FrameworkSource/ES_Timers.o
realB4RxPacket      0x16              build/FrameworkWith_u8g2/production/ProjectSource/Comms.o
realB3RxPacket      0x16              build/FrameworkWith_u8g2/production/ProjectSource/Comms.o
realB1RxPacket      0x16              build/FrameworkWith_u8g2/production/ProjectSource/Comms.o
realB5RxPacket      0x16              build/FrameworkWith_u8g2/production/ProjectSource/Comms.o
TVS_ACTIVE          0x1               build/FrameworkWith_u8g2/production/FrameworkSource/ES_Timers.o
realB2RxPacket      0x16              build/FrameworkWith_u8g2/production/ProjectSource/Comms.o
SELF                0x4               build/FrameworkWith_u8g2/production/FrameworkSource/ES_Timers.o
ZENER_BUFFER        0xa               build/FrameworkWith_u8g2/production/FrameworkSource/ES_Timers.o
realTeamRxPacket    0x16              build/FrameworkWith_u8g2/production/ProjectSource/Comms.o
numChanInSet        0x1               build/FrameworkWith_u8g2/production/ProjectSource/PIC32_AD_Lib.o
u8g2_pg             0x4c              build/FrameworkWith_u8g2/production/u8g2/u8g2_polygon.o
realB6RxPacket      0x16              build/FrameworkWith_u8g2/production/ProjectSource/Comms.o
OPAMP_BUFFER        0xa               build/FrameworkWith_u8g2/production/FrameworkSource/ES_Timers.o
realB0RxPacket      0x16              build/FrameworkWith_u8g2/production/ProjectSource/Comms.o
Ready               0x2               build/FrameworkWith_u8g2/production/FrameworkSource/ES_Framework.o
_INTCON_temp        0x1               build/FrameworkWith_u8g2/production/FrameworkSource/ES_Port.o
ZENER_ACTIVE        0x1               build/FrameworkWith_u8g2/production/FrameworkSource/ES_Timers.o
BROADCAST_BUFFER    0xb               build/FrameworkWith_u8g2/production/FrameworkSource/ES_Timers.o
TVS_BUFFER          0xa               build/FrameworkWith_u8g2/production/FrameworkSource/ES_Timers.o

Microchip PIC32 Memory-Usage Report

kseg0 Program-Memory Usage
section                    address  length [bytes]      (dec)  Description
-------                 ----------  -------------------------  -----------
.text                   0x9d000000         0x2608        9736  App's exec code 
.rodata                 0x9d002608         0x203c        8252  Read-only const 
.text                   0x9d004644         0x3294       12948  App's exec code 
.text                   0x9d0078d8         0x2b2c       11052  App's exec code 
.text                   0x9d00a404         0x26a4        9892  App's exec code 
.text                   0x9d00caa8         0x19c8        6600  App's exec code 
.text                   0x9d00e470          0xc4c        3148  App's exec code 
.text._do_print_cdfFnop 0x9d00f0bc          0xaa8        2728   
.text                   0x9d00fb64         0x129c        4764  App's exec code 
.text                   0x9d010e00         0x1004        4100  App's exec code 
.text._fconvert         0x9d011e04          0x6b0        1712   
.text                   0x9d0124b4          0xbe4        3044  App's exec code 
.text                   0x9d013098          0x504        1284  App's exec code 
.text.dp32mul           0x9d01359c          0x4b8        1208   
.text                   0x9d013a54          0x944        2372  App's exec code 
.text                   0x9d014398          0x8cc        2252  App's exec code 
.text                   0x9d014c64          0x894        2196  App's exec code 
.text.dp32subadd        0x9d0154f8          0x430        1072   
.text                   0x9d015928          0x758        1880  App's exec code 
.text                   0x9d016080          0x664        1636  App's exec code 
.dinit                  0x9d0166e4          0x330         816   
.text.dp32mul           0x9d016a14          0x32c         812   
.text.libm              0x9d016d40          0x328         808   
.text                   0x9d017068          0x2a4         676  App's exec code 
.text.exsqrt            0x9d01730c          0x29c         668   
.text                   0x9d0175a8          0x4f0        1264  App's exec code 
.text.fp32div           0x9d017a98          0x230         560   
.text                   0x9d017cc8          0x400        1024  App's exec code 
.text                   0x9d0180c8          0x1ec         492  App's exec code 
.text.fp32mul           0x9d0182b4          0x1bc         444   
.text.libm              0x9d018470          0x1b8         440   
.text                   0x9d018628          0x1a4         420  App's exec code 
.text.libm              0x9d0187cc          0x1a4         420   
.text                   0x9d018970          0x328         808  App's exec code 
.rodata                 0x9d018c98          0x160         352  Read-only const 
.text                   0x9d018df8          0x15c         348  App's exec code 
.text._outcnvrt         0x9d018f54          0x13c         316   
.text                   0x9d019090          0x138         312  App's exec code 
.text.dpcmp             0x9d0191c8          0x12c         300   
.rodata                 0x9d0192f4          0x128         296  Read-only const 
.text.libm              0x9d01941c          0x22c         556   
.text.dptofp            0x9d019648          0x100         256   
.text._flsbuf_simple    0x9d019748           0xfc         252   
.text._mon_getc         0x9d019844           0xf0         240   
.text.general_exception 0x9d019934           0xdc         220   
.text._mon_putc         0x9d019a10           0xd8         216   
.rodata                 0x9d019ae8           0xd0         208  Read-only const 
.text.libm              0x9d019bb8           0xd0         208   
.text                   0x9d019c88           0xbc         188  App's exec code 
.text.fputc             0x9d019d44           0xac         172   
.text.fptodp            0x9d019df0           0xac         172   
.text                   0x9d019e9c           0xa8         168  App's exec code 
.text.repl              0x9d019f44           0x9c         156   
.text.fpcmp             0x9d019fe0           0x9c         156   
.text.strlen            0x9d01a07c           0x94         148   
.text.dptoli            0x9d01a110           0x90         144   
.text                   0x9d01a1a0          0x110         272  App's exec code 
.text.sqrtl             0x9d01a2b0           0x84         132   
.text._fflush_simple    0x9d01a334           0x80         128   
.text._fwrite_simple    0x9d01a3b4           0x80         128   
.text.fptoli            0x9d01a434           0x80         128   
.text.fptoul            0x9d01a4b4           0x7c         124   
.rodata                 0x9d01a530           0x78         120  Read-only const 
.text.litodp            0x9d01a5a8           0x78         120   
.rodata                 0x9d01a620           0x74         116  Read-only const 
.text                   0x9d01a694           0x70         112  App's exec code 
.text.__sputn           0x9d01a704           0x68         104   
.text                   0x9d01a76c           0x60          96  App's exec code 
.text.sitofp            0x9d01a7cc           0x60          96   
.text.fputs             0x9d01a82c           0x58          88   
.text.main_entry        0x9d01a884           0x54          84   
.rodata                 0x9d01a8d8           0x50          80  Read-only const 
.text.puts              0x9d01a928           0x4c          76   
.text._mon_write        0x9d01a974           0x4c          76   
.text._bootstrap_except 0x9d01a9c0           0x48          72   
.text._general_exceptio 0x9d01aa08           0x48          72   
.vector_default         0x9d01aa50           0x48          72   
.text                   0x9d01aa98           0x88         136  App's exec code 
.rodata                 0x9d01ab20           0x80         128  Read-only const 
.rodata                 0x9d01aba0           0x40          64  Read-only const 
.text._printf_cdfFnopux 0x9d01abe0           0x40          64   
.rodata                 0x9d01ac20           0x70         112  Read-only const 
.text._filbuf_simple    0x9d01ac90           0x34          52   
.rodata                 0x9d01acc4           0x30          48  Read-only const 
.text._fsync_simple     0x9d01acf4           0x30          48   
.rodata                 0x9d01ad24           0x34          52  Read-only const 
.text                   0x9d01ad58           0x18          24  App's exec code 
.rodata                 0x9d01ad70           0x1c          28  Read-only const 
.rodata                 0x9d01ad8c            0x4           4  Read-only const 
.rodata                 0x9d01ad90            0x8           8  Read-only const 
.text._on_reset         0x9d01ad98            0x8           8   
.text._on_bootstrap     0x9d01ada0            0x8           8   
      Total kseg0_program_mem used  :     0x1ada8      109992  42.6% of 0x3f000

kseg0 Boot-Memory Usage
section                    address  length [bytes]      (dec)  Description
-------                 ----------  -------------------------  -----------
         Total kseg0_boot_mem used  :           0           0  

Exception-Memory Usage 
section                    address  length [bytes]      (dec)  Description
-------                 ----------  -------------------------  -----------
.app_excpt              0x9d03f180           0x10          16  General-Exception 
.vector_0               0x9d03f200            0x8           8  Interrupt Vector 0 
.vector_1               0x9d03f220            0x8           8  Interrupt Vector 1 
.vector_2               0x9d03f240            0x8           8  Interrupt Vector 2 
.vector_3               0x9d03f260            0x8           8  Interrupt Vector 3 
.vector_4               0x9d03f280            0x8           8  Interrupt Vector 4 
.vector_5               0x9d03f2a0            0x8           8  Interrupt Vector 5 
.vector_6               0x9d03f2c0            0x8           8  Interrupt Vector 6 
.vector_7               0x9d03f2e0            0x8           8  Interrupt Vector 7 
.vector_8               0x9d03f300            0x8           8  Interrupt Vector 8 
.vector_9               0x9d03f320            0x8           8  Interrupt Vector 9 
.vector_10              0x9d03f340            0x8           8  Interrupt Vector 10 
.vector_11              0x9d03f360            0x8           8  Interrupt Vector 11 
.vector_12              0x9d03f380            0x8           8  Interrupt Vector 12 
.vector_13              0x9d03f3a0            0x8           8  Interrupt Vector 13 
.vector_14              0x9d03f3c0            0x8           8  Interrupt Vector 14 
.vector_15              0x9d03f3e0            0x8           8  Interrupt Vector 15 
.vector_16              0x9d03f400            0x8           8  Interrupt Vector 16 
.vector_17              0x9d03f420            0x8           8  Interrupt Vector 17 
.vector_18              0x9d03f440            0x8           8  Interrupt Vector 18 
.vector_19              0x9d03f460            0x8           8  Interrupt Vector 19 
.vector_20              0x9d03f480            0x8           8  Interrupt Vector 20 
.vector_21              0x9d03f4a0            0x8           8  Interrupt Vector 21 
.vector_22              0x9d03f4c0            0x8           8  Interrupt Vector 22 
.vector_23              0x9d03f4e0            0x8           8  Interrupt Vector 23 
.vector_24              0x9d03f500            0x8           8  Interrupt Vector 24 
.vector_25              0x9d03f520            0x8           8  Interrupt Vector 25 
.vector_26              0x9d03f540            0x8           8  Interrupt Vector 26 
.vector_27              0x9d03f560            0x8           8  Interrupt Vector 27 
.vector_28              0x9d03f580            0x8           8  Interrupt Vector 28 
.vector_29              0x9d03f5a0            0x8           8  Interrupt Vector 29 
.vector_30              0x9d03f5c0            0x8           8  Interrupt Vector 30 
.vector_31              0x9d03f5e0            0x8           8  Interrupt Vector 31 
.vector_32              0x9d03f600            0x8           8  Interrupt Vector 32 
.vector_33              0x9d03f620            0x8           8  Interrupt Vector 33 
.vector_34              0x9d03f640            0x8           8  Interrupt Vector 34 
.vector_35              0x9d03f660            0x8           8  Interrupt Vector 35 
.vector_36              0x9d03f680            0x8           8  Interrupt Vector 36 
.vector_37              0x9d03f6a0            0x8           8  Interrupt Vector 37 
.vector_38              0x9d03f6c0            0x8           8  Interrupt Vector 38 
.vector_39              0x9d03f6e0            0x8           8  Interrupt Vector 39 
.vector_40              0x9d03f700            0x8           8  Interrupt Vector 40 
.vector_41              0x9d03f720            0x8           8  Interrupt Vector 41 
.vector_42              0x9d03f740            0x8           8  Interrupt Vector 42 
.vector_43              0x9d03f760            0x8           8  Interrupt Vector 43 
          Total exception_mem used  :       0x170         368  9.0% of 0x1000

kseg1 Boot-Memory Usage
section                    address  length [bytes]      (dec)  Description
-------                 ----------  -------------------------  -----------
.reset                  0xbfc00000          0x178         376  Reset handler 
.bev_excpt              0xbfc00380           0x10          16  BEV-Exception 
         Total kseg1_boot_mem used  :       0x188         392  33.6% of 0x490
        --------------------------------------------------------------------------
         Total Program Memory used  :     0x1b0a0      110752  42.1% of 0x40490
        --------------------------------------------------------------------------


kseg1 Data-Memory Usage
section                    address  length [bytes]      (dec)  Description
-------                 ----------  -------------------------  -----------
.sdata                  0xa0000000           0x10          16  Small init data 
.sbss                   0xa0000010          0x104         260  Small uninit data 
.bss                    0xa0000114           0xf0         240  Uninitialized data 
.bss                    0xa0000204          0x558        1368  Uninitialized data 
.data                   0xa000075c           0xd4         212  Initialized data 
.bss                    0xa0000830          0x15c         348  Uninitialized data 
.bss                    0xa000098c           0x88         136  Uninitialized data 
.data                   0xa0000a14           0x70         112  Initialized data 
.bss                    0xa0000a84           0x38          56  Uninitialized data 
.bss                    0xa0000abc           0x10          16  Uninitialized data 
.data.math_errhandling_ 0xa0000acc            0x4           4   
         Total kseg1_data_mem used  :       0xad0        2768  4.2% of 0x10000
        --------------------------------------------------------------------------
            Total Data Memory used  :       0xad0        2768  4.2% of 0x10000
        --------------------------------------------------------------------------


Dynamic Data-Memory Reservation
section                    address  length [bytes]      (dec)  Description
-------                 ----------  -------------------------  -----------
heap                    0xa0000ad8           0x10          16  Reserved for heap 
stack                   0xa0000b00         0xf4f8       62712  Reserved for stack 

        --------------------------------------------------------------------------

Discarded input sections

 .text          0x00000000        0x0 /Applications/microchip/xc32/v2.50/bin/bin/../../lib/gcc/pic32mx/4.8.3/../../../../pic32mx/lib/debug-exception-return.o
 .data          0x00000000        0x0 /Applications/microchip/xc32/v2.50/bin/bin/../../lib/gcc/pic32mx/4.8.3/../../../../pic32mx/lib/debug-exception-return.o
 .bss           0x00000000        0x0 /Applications/microchip/xc32/v2.50/bin/bin/../../lib/gcc/pic32mx/4.8.3/../../../../pic32mx/lib/debug-exception-return.o
 .data          0x00000000        0x0 build/FrameworkWith_u8g2/production/FrameworkSource/ES_Port.o
 .bss           0x00000000        0x0 build/FrameworkWith_u8g2/production/FrameworkSource/ES_Port.o
 .reginfo       0x00000000       0x18 build/FrameworkWith_u8g2/production/FrameworkSource/ES_Port.o
 .data          0x00000000        0x0 build/FrameworkWith_u8g2/production/FrameworkSource/ES_Timers.o
 .reginfo       0x00000000       0x18 build/FrameworkWith_u8g2/production/FrameworkSource/ES_Timers.o
 .data          0x00000000        0x0 build/FrameworkWith_u8g2/production/FrameworkSource/ES_LookupTables.o
 .bss           0x00000000        0x0 build/FrameworkWith_u8g2/production/FrameworkSource/ES_LookupTables.o
 .reginfo       0x00000000       0x18 build/FrameworkWith_u8g2/production/FrameworkSource/ES_LookupTables.o
 .data          0x00000000        0x0 build/FrameworkWith_u8g2/production/FrameworkSource/ES_CheckEvents.o
 .bss           0x00000000        0x0 build/FrameworkWith_u8g2/production/FrameworkSource/ES_CheckEvents.o
 .reginfo       0x00000000       0x18 build/FrameworkWith_u8g2/production/FrameworkSource/ES_CheckEvents.o
 .rodata        0x00000000        0x4 build/FrameworkWith_u8g2/production/FrameworkSource/ES_CheckEvents.o
 .text          0x00000000       0x88 build/FrameworkWith_u8g2/production/FrameworkSource/ES_DeferRecall.o
 .data          0x00000000        0x0 build/FrameworkWith_u8g2/production/FrameworkSource/ES_DeferRecall.o
 .bss           0x00000000        0x0 build/FrameworkWith_u8g2/production/FrameworkSource/ES_DeferRecall.o
 .reginfo       0x00000000       0x18 build/FrameworkWith_u8g2/production/FrameworkSource/ES_DeferRecall.o
 .data          0x00000000        0x0 build/FrameworkWith_u8g2/production/FrameworkSource/ES_Framework.o
 .reginfo       0x00000000       0x18 build/FrameworkWith_u8g2/production/FrameworkSource/ES_Framework.o
 .data          0x00000000        0x0 build/FrameworkWith_u8g2/production/FrameworkSource/ES_Queue.o
 .bss           0x00000000        0x0 build/FrameworkWith_u8g2/production/FrameworkSource/ES_Queue.o
 .reginfo       0x00000000       0x18 build/FrameworkWith_u8g2/production/FrameworkSource/ES_Queue.o
 .text          0x00000000        0x0 build/FrameworkWith_u8g2/production/FrameworkSource/ES_PostList.o
 .data          0x00000000        0x0 build/FrameworkWith_u8g2/production/FrameworkSource/ES_PostList.o
 .bss           0x00000000        0x0 build/FrameworkWith_u8g2/production/FrameworkSource/ES_PostList.o
 .reginfo       0x00000000       0x18 build/FrameworkWith_u8g2/production/FrameworkSource/ES_PostList.o
 .data          0x00000000        0x0 build/FrameworkWith_u8g2/production/FrameworkSource/terminal.o
 .bss           0x00000000        0x0 build/FrameworkWith_u8g2/production/FrameworkSource/terminal.o
 .reginfo       0x00000000       0x18 build/FrameworkWith_u8g2/production/FrameworkSource/terminal.o
 .data          0x00000000        0x0 build/FrameworkWith_u8g2/production/ProjectSource/main.o
 .bss           0x00000000        0x0 build/FrameworkWith_u8g2/production/ProjectSource/main.o
 .reginfo       0x00000000       0x18 build/FrameworkWith_u8g2/production/ProjectSource/main.o
 .data          0x00000000        0x0 build/FrameworkWith_u8g2/production/ProjectSource/EventCheckers.o
 .bss           0x00000000        0x0 build/FrameworkWith_u8g2/production/ProjectSource/EventCheckers.o
 .reginfo       0x00000000       0x18 build/FrameworkWith_u8g2/production/ProjectSource/EventCheckers.o
 .data          0x00000000        0x0 build/FrameworkWith_u8g2/production/ProjectSource/dbprintf.o
 .bss           0x00000000        0x0 build/FrameworkWith_u8g2/production/ProjectSource/dbprintf.o
 .reginfo       0x00000000       0x18 build/FrameworkWith_u8g2/production/ProjectSource/dbprintf.o
 .data          0x00000000        0x0 build/FrameworkWith_u8g2/production/ProjectSource/pinsHAL.o
 .bss           0x00000000        0x0 build/FrameworkWith_u8g2/production/ProjectSource/pinsHAL.o
 .reginfo       0x00000000       0x18 build/FrameworkWith_u8g2/production/ProjectSource/pinsHAL.o
 .data          0x00000000        0x0 build/FrameworkWith_u8g2/production/ProjectSource/PIC32_AD_Lib.o
 .bss           0x00000000        0x0 build/FrameworkWith_u8g2/production/ProjectSource/PIC32_AD_Lib.o
 .reginfo       0x00000000       0x18 build/FrameworkWith_u8g2/production/ProjectSource/PIC32_AD_Lib.o
 .data          0x00000000        0x0 build/FrameworkWith_u8g2/production/ProjectSource/joystickHelpers.o
 .bss           0x00000000        0x0 build/FrameworkWith_u8g2/production/ProjectSource/joystickHelpers.o
 .reginfo       0x00000000       0x18 build/FrameworkWith_u8g2/production/ProjectSource/joystickHelpers.o
 .text          0x00000000      0x440 build/FrameworkWith_u8g2/production/ProjectSource/spiHAL.o
 .data          0x00000000        0x0 build/FrameworkWith_u8g2/production/ProjectSource/spiHAL.o
 .bss           0x00000000        0x0 build/FrameworkWith_u8g2/production/ProjectSource/spiHAL.o
 .reginfo       0x00000000       0x18 build/FrameworkWith_u8g2/production/ProjectSource/spiHAL.o
 .data          0x00000000       0x10 build/FrameworkWith_u8g2/production/ProjectSource/OLEDService.o
 .reginfo       0x00000000       0x18 build/FrameworkWith_u8g2/production/ProjectSource/OLEDService.o
 .data          0x00000000        0x0 build/FrameworkWith_u8g2/production/ProjectSource/Comms.o
 .bss           0x00000000        0x0 build/FrameworkWith_u8g2/production/ProjectSource/Comms.o
 .reginfo       0x00000000       0x18 build/FrameworkWith_u8g2/production/ProjectSource/Comms.o
 .data          0x00000000        0x0 build/FrameworkWith_u8g2/production/ProjectSource/CommsRx.o
 .reginfo       0x00000000       0x18 build/FrameworkWith_u8g2/production/ProjectSource/CommsRx.o
 .data          0x00000000        0x0 build/FrameworkWith_u8g2/production/ProjectSource/CommsTx.o
 .bss           0x00000000        0x0 build/FrameworkWith_u8g2/production/ProjectSource/CommsTx.o
 .reginfo       0x00000000       0x18 build/FrameworkWith_u8g2/production/ProjectSource/CommsTx.o
 .data          0x00000000        0x0 build/FrameworkWith_u8g2/production/ProjectSource/OPAMP.o
 .bss           0x00000000        0x0 build/FrameworkWith_u8g2/production/ProjectSource/OPAMP.o
 .reginfo       0x00000000       0x18 build/FrameworkWith_u8g2/production/ProjectSource/OPAMP.o
 .text          0x00000000      0x734 build/FrameworkWith_u8g2/production/ProjectSource/PackDataHandler.o
 .data          0x00000000        0x0 build/FrameworkWith_u8g2/production/ProjectSource/PackDataHandler.o
 .bss           0x00000000        0x0 build/FrameworkWith_u8g2/production/ProjectSource/PackDataHandler.o
 .reginfo       0x00000000       0x18 build/FrameworkWith_u8g2/production/ProjectSource/PackDataHandler.o
 .rodata        0x00000000      0x1e4 build/FrameworkWith_u8g2/production/ProjectSource/PackDataHandler.o
 .data          0x00000000        0x0 build/FrameworkWith_u8g2/production/ProjectSource/TVS.o
 .bss           0x00000000        0x0 build/FrameworkWith_u8g2/production/ProjectSource/TVS.o
 .reginfo       0x00000000       0x18 build/FrameworkWith_u8g2/production/ProjectSource/TVS.o
 .data          0x00000000        0x0 build/FrameworkWith_u8g2/production/ProjectSource/ZENER.o
 .reginfo       0x00000000       0x18 build/FrameworkWith_u8g2/production/ProjectSource/ZENER.o
 .data          0x00000000        0x0 build/FrameworkWith_u8g2/production/u8g2/spi_master.o
 .bss           0x00000000        0x0 build/FrameworkWith_u8g2/production/u8g2/spi_master.o
 .reginfo       0x00000000       0x18 build/FrameworkWith_u8g2/production/u8g2/spi_master.o
 .data          0x00000000        0x0 build/FrameworkWith_u8g2/production/u8g2/u8g2_bitmap.o
 .bss           0x00000000        0x0 build/FrameworkWith_u8g2/production/u8g2/u8g2_bitmap.o
 .reginfo       0x00000000       0x18 build/FrameworkWith_u8g2/production/u8g2/u8g2_bitmap.o
 .text          0x00000000      0x860 build/FrameworkWith_u8g2/production/u8g2/u8g2_box.o
 .data          0x00000000        0x0 build/FrameworkWith_u8g2/production/u8g2/u8g2_box.o
 .bss           0x00000000        0x0 build/FrameworkWith_u8g2/production/u8g2/u8g2_box.o
 .reginfo       0x00000000       0x18 build/FrameworkWith_u8g2/production/u8g2/u8g2_box.o
 .data          0x00000000        0x0 build/FrameworkWith_u8g2/production/u8g2/u8g2_buffer.o
 .bss           0x00000000        0x0 build/FrameworkWith_u8g2/production/u8g2/u8g2_buffer.o
 .reginfo       0x00000000       0x18 build/FrameworkWith_u8g2/production/u8g2/u8g2_buffer.o
 .text          0x00000000     0x1638 build/FrameworkWith_u8g2/production/u8g2/u8g2_circle.o
 .data          0x00000000        0x0 build/FrameworkWith_u8g2/production/u8g2/u8g2_circle.o
 .bss           0x00000000        0x0 build/FrameworkWith_u8g2/production/u8g2/u8g2_circle.o
 .reginfo       0x00000000       0x18 build/FrameworkWith_u8g2/production/u8g2/u8g2_circle.o
 .text          0x00000000       0x5c build/FrameworkWith_u8g2/production/u8g2/u8g2_cleardisplay.o
 .data          0x00000000        0x0 build/FrameworkWith_u8g2/production/u8g2/u8g2_cleardisplay.o
 .bss           0x00000000        0x0 build/FrameworkWith_u8g2/production/u8g2/u8g2_cleardisplay.o
 .reginfo       0x00000000       0x18 build/FrameworkWith_u8g2/production/u8g2/u8g2_cleardisplay.o
 .data          0x00000000        0x0 build/FrameworkWith_u8g2/production/u8g2/u8g2_d_memory.o
 .reginfo       0x00000000       0x18 build/FrameworkWith_u8g2/production/u8g2/u8g2_d_memory.o
 .data          0x00000000        0x0 build/FrameworkWith_u8g2/production/u8g2/u8g2_d_setup.o
 .bss           0x00000000        0x0 build/FrameworkWith_u8g2/production/u8g2/u8g2_d_setup.o
 .reginfo       0x00000000       0x18 build/FrameworkWith_u8g2/production/u8g2/u8g2_d_setup.o
 .data          0x00000000        0x0 build/FrameworkWith_u8g2/production/u8g2/u8g2_font.o
 .bss           0x00000000        0x0 build/FrameworkWith_u8g2/production/u8g2/u8g2_font.o
 .reginfo       0x00000000       0x18 build/FrameworkWith_u8g2/production/u8g2/u8g2_font.o
 .text          0x00000000        0x0 build/FrameworkWith_u8g2/production/u8g2/u8g2_fonts.o
 .data          0x00000000        0x0 build/FrameworkWith_u8g2/production/u8g2/u8g2_fonts.o
 .bss           0x00000000        0x0 build/FrameworkWith_u8g2/production/u8g2/u8g2_fonts.o
 .reginfo       0x00000000       0x18 build/FrameworkWith_u8g2/production/u8g2/u8g2_fonts.o
 .data          0x00000000        0x0 build/FrameworkWith_u8g2/production/u8g2/u8g2_hvline.o
 .bss           0x00000000        0x0 build/FrameworkWith_u8g2/production/u8g2/u8g2_hvline.o
 .reginfo       0x00000000       0x18 build/FrameworkWith_u8g2/production/u8g2/u8g2_hvline.o
 .text          0x00000000      0x3d0 build/FrameworkWith_u8g2/production/u8g2/u8g2_input_value.o
 .data          0x00000000        0x0 build/FrameworkWith_u8g2/production/u8g2/u8g2_input_value.o
 .bss           0x00000000        0x0 build/FrameworkWith_u8g2/production/u8g2/u8g2_input_value.o
 .reginfo       0x00000000       0x18 build/FrameworkWith_u8g2/production/u8g2/u8g2_input_value.o
 .rodata        0x00000000        0x4 build/FrameworkWith_u8g2/production/u8g2/u8g2_input_value.o
 .data          0x00000000        0x0 build/FrameworkWith_u8g2/production/u8g2/u8g2_intersection.o
 .bss           0x00000000        0x0 build/FrameworkWith_u8g2/production/u8g2/u8g2_intersection.o
 .reginfo       0x00000000       0x18 build/FrameworkWith_u8g2/production/u8g2/u8g2_intersection.o
 .data          0x00000000        0x0 build/FrameworkWith_u8g2/production/u8g2/u8g2_kerning.o
 .bss           0x00000000        0x0 build/FrameworkWith_u8g2/production/u8g2/u8g2_kerning.o
 .reginfo       0x00000000       0x18 build/FrameworkWith_u8g2/production/u8g2/u8g2_kerning.o
 .text          0x00000000      0x288 build/FrameworkWith_u8g2/production/u8g2/u8g2_line.o
 .data          0x00000000        0x0 build/FrameworkWith_u8g2/production/u8g2/u8g2_line.o
 .bss           0x00000000        0x0 build/FrameworkWith_u8g2/production/u8g2/u8g2_line.o
 .reginfo       0x00000000       0x18 build/FrameworkWith_u8g2/production/u8g2/u8g2_line.o
 .data          0x00000000        0x0 build/FrameworkWith_u8g2/production/u8g2/u8g2_ll_hvline.o
 .bss           0x00000000        0x0 build/FrameworkWith_u8g2/production/u8g2/u8g2_ll_hvline.o
 .reginfo       0x00000000       0x18 build/FrameworkWith_u8g2/production/u8g2/u8g2_ll_hvline.o
 .text          0x00000000      0x58c build/FrameworkWith_u8g2/production/u8g2/u8g2_message.o
 .data          0x00000000        0x0 build/FrameworkWith_u8g2/production/u8g2/u8g2_message.o
 .bss           0x00000000        0x0 build/FrameworkWith_u8g2/production/u8g2/u8g2_message.o
 .reginfo       0x00000000       0x18 build/FrameworkWith_u8g2/production/u8g2/u8g2_message.o
 .data          0x00000000        0x0 build/FrameworkWith_u8g2/production/u8g2/u8g2_pic32mz.o
 .bss           0x00000000        0x0 build/FrameworkWith_u8g2/production/u8g2/u8g2_pic32mz.o
 .reginfo       0x00000000       0x18 build/FrameworkWith_u8g2/production/u8g2/u8g2_pic32mz.o
 .text          0x00000000      0xd14 build/FrameworkWith_u8g2/production/u8g2/u8g2_polygon.o
 .data          0x00000000        0x0 build/FrameworkWith_u8g2/production/u8g2/u8g2_polygon.o
 .bss           0x00000000        0x0 build/FrameworkWith_u8g2/production/u8g2/u8g2_polygon.o
 .reginfo       0x00000000       0x18 build/FrameworkWith_u8g2/production/u8g2/u8g2_polygon.o
 COMMON         0x00000000       0x4c build/FrameworkWith_u8g2/production/u8g2/u8g2_polygon.o
 .text          0x00000000      0x894 build/FrameworkWith_u8g2/production/u8g2/u8g2_selection_list.o
 .data          0x00000000        0x0 build/FrameworkWith_u8g2/production/u8g2/u8g2_selection_list.o
 .bss           0x00000000        0x0 build/FrameworkWith_u8g2/production/u8g2/u8g2_selection_list.o
 .reginfo       0x00000000       0x18 build/FrameworkWith_u8g2/production/u8g2/u8g2_selection_list.o
 .rodata        0x00000000        0x4 build/FrameworkWith_u8g2/production/u8g2/u8g2_selection_list.o
 .data          0x00000000        0x0 build/FrameworkWith_u8g2/production/u8g2/u8g2_setup.o
 .bss           0x00000000        0x0 build/FrameworkWith_u8g2/production/u8g2/u8g2_setup.o
 .reginfo       0x00000000       0x18 build/FrameworkWith_u8g2/production/u8g2/u8g2_setup.o
 .text          0x00000000      0x96c build/FrameworkWith_u8g2/production/u8g2/u8log.o
 .data          0x00000000        0x0 build/FrameworkWith_u8g2/production/u8g2/u8log.o
 .bss           0x00000000        0x0 build/FrameworkWith_u8g2/production/u8g2/u8log.o
 .reginfo       0x00000000       0x18 build/FrameworkWith_u8g2/production/u8g2/u8log.o
 .text          0x00000000      0x204 build/FrameworkWith_u8g2/production/u8g2/u8log_u8g2.o
 .data          0x00000000        0x0 build/FrameworkWith_u8g2/production/u8g2/u8log_u8g2.o
 .bss           0x00000000        0x0 build/FrameworkWith_u8g2/production/u8g2/u8log_u8g2.o
 .reginfo       0x00000000       0x18 build/FrameworkWith_u8g2/production/u8g2/u8log_u8g2.o
 .text          0x00000000      0x21c build/FrameworkWith_u8g2/production/u8g2/u8log_u8x8.o
 .data          0x00000000        0x0 build/FrameworkWith_u8g2/production/u8g2/u8log_u8x8.o
 .bss           0x00000000        0x0 build/FrameworkWith_u8g2/production/u8g2/u8log_u8x8.o
 .reginfo       0x00000000       0x18 build/FrameworkWith_u8g2/production/u8g2/u8log_u8x8.o
 .data          0x00000000        0x0 build/FrameworkWith_u8g2/production/u8g2/u8x8_8x8.o
 .bss           0x00000000        0x0 build/FrameworkWith_u8g2/production/u8g2/u8x8_8x8.o
 .reginfo       0x00000000       0x18 build/FrameworkWith_u8g2/production/u8g2/u8x8_8x8.o
 .data          0x00000000        0x0 build/FrameworkWith_u8g2/production/u8g2/u8x8_byte.o
 .bss           0x00000000        0x0 build/FrameworkWith_u8g2/production/u8g2/u8x8_byte.o
 .reginfo       0x00000000       0x18 build/FrameworkWith_u8g2/production/u8g2/u8x8_byte.o
 .data          0x00000000        0x0 build/FrameworkWith_u8g2/production/u8g2/u8x8_cad.o
 .reginfo       0x00000000       0x18 build/FrameworkWith_u8g2/production/u8g2/u8x8_cad.o
 .data          0x00000000        0x0 build/FrameworkWith_u8g2/production/u8g2/u8x8_d_ssd1306_128x64_noname.o
 .bss           0x00000000        0x0 build/FrameworkWith_u8g2/production/u8g2/u8x8_d_ssd1306_128x64_noname.o
 .reginfo       0x00000000       0x18 build/FrameworkWith_u8g2/production/u8g2/u8x8_d_ssd1306_128x64_noname.o
 .text          0x00000000      0x2fc build/FrameworkWith_u8g2/production/u8g2/u8x8_debounce.o
 .data          0x00000000        0x0 build/FrameworkWith_u8g2/production/u8g2/u8x8_debounce.o
 .bss           0x00000000        0x0 build/FrameworkWith_u8g2/production/u8g2/u8x8_debounce.o
 .reginfo       0x00000000       0x18 build/FrameworkWith_u8g2/production/u8g2/u8x8_debounce.o
 .data          0x00000000        0x0 build/FrameworkWith_u8g2/production/u8g2/u8x8_display.o
 .bss           0x00000000        0x0 build/FrameworkWith_u8g2/production/u8g2/u8x8_display.o
 .reginfo       0x00000000       0x18 build/FrameworkWith_u8g2/production/u8g2/u8x8_display.o
 .text          0x00000000        0x0 build/FrameworkWith_u8g2/production/u8g2/u8x8_fonts.o
 .data          0x00000000        0x0 build/FrameworkWith_u8g2/production/u8g2/u8x8_fonts.o
 .bss           0x00000000        0x0 build/FrameworkWith_u8g2/production/u8g2/u8x8_fonts.o
 .reginfo       0x00000000       0x18 build/FrameworkWith_u8g2/production/u8g2/u8x8_fonts.o
 .data          0x00000000        0x0 build/FrameworkWith_u8g2/production/u8g2/u8x8_gpio.o
 .bss           0x00000000        0x0 build/FrameworkWith_u8g2/production/u8g2/u8x8_gpio.o
 .reginfo       0x00000000       0x18 build/FrameworkWith_u8g2/production/u8g2/u8x8_gpio.o
 .text          0x00000000      0x3b8 build/FrameworkWith_u8g2/production/u8g2/u8x8_input_value.o
 .data          0x00000000        0x0 build/FrameworkWith_u8g2/production/u8g2/u8x8_input_value.o
 .bss           0x00000000        0x0 build/FrameworkWith_u8g2/production/u8g2/u8x8_input_value.o
 .reginfo       0x00000000       0x18 build/FrameworkWith_u8g2/production/u8g2/u8x8_input_value.o
 .text          0x00000000      0x524 build/FrameworkWith_u8g2/production/u8g2/u8x8_message.o
 .data          0x00000000        0x0 build/FrameworkWith_u8g2/production/u8g2/u8x8_message.o
 .bss           0x00000000        0x0 build/FrameworkWith_u8g2/production/u8g2/u8x8_message.o
 .reginfo       0x00000000       0x18 build/FrameworkWith_u8g2/production/u8g2/u8x8_message.o
 .rodata        0x00000000        0x4 build/FrameworkWith_u8g2/production/u8g2/u8x8_message.o
 .text          0x00000000      0x588 build/FrameworkWith_u8g2/production/u8g2/u8x8_selection_list.o
 .data          0x00000000        0x0 build/FrameworkWith_u8g2/production/u8g2/u8x8_selection_list.o
 .bss           0x00000000        0x0 build/FrameworkWith_u8g2/production/u8g2/u8x8_selection_list.o
 .reginfo       0x00000000       0x18 build/FrameworkWith_u8g2/production/u8g2/u8x8_selection_list.o
 .rodata        0x00000000        0x4 build/FrameworkWith_u8g2/production/u8g2/u8x8_selection_list.o
 .data          0x00000000        0x0 build/FrameworkWith_u8g2/production/u8g2/u8x8_setup.o
 .bss           0x00000000        0x0 build/FrameworkWith_u8g2/production/u8g2/u8x8_setup.o
 .reginfo       0x00000000       0x18 build/FrameworkWith_u8g2/production/u8g2/u8x8_setup.o
 .text          0x00000000      0x49c build/FrameworkWith_u8g2/production/u8g2/u8x8_string.o
 .data          0x00000000        0x0 build/FrameworkWith_u8g2/production/u8g2/u8x8_string.o
 .bss           0x00000000        0x0 build/FrameworkWith_u8g2/production/u8g2/u8x8_string.o
 .reginfo       0x00000000       0x18 build/FrameworkWith_u8g2/production/u8g2/u8x8_string.o
 .rodata        0x00000000        0x4 build/FrameworkWith_u8g2/production/u8g2/u8x8_string.o
 .text          0x00000000      0x144 build/FrameworkWith_u8g2/production/u8g2/u8x8_u16toa.o
 .data          0x00000000        0x0 build/FrameworkWith_u8g2/production/u8g2/u8x8_u16toa.o
 .bss           0x00000000        0x0 build/FrameworkWith_u8g2/production/u8g2/u8x8_u16toa.o
 .reginfo       0x00000000       0x18 build/FrameworkWith_u8g2/production/u8g2/u8x8_u16toa.o
 .text          0x00000000      0x138 build/FrameworkWith_u8g2/production/u8g2/u8x8_u8toa.o
 .data          0x00000000        0x0 build/FrameworkWith_u8g2/production/u8g2/u8x8_u8toa.o
 .bss           0x00000000        0x0 build/FrameworkWith_u8g2/production/u8g2/u8x8_u8toa.o
 .reginfo       0x00000000       0x18 build/FrameworkWith_u8g2/production/u8g2/u8x8_u8toa.o
 .rodata        0x00000000        0x4 build/FrameworkWith_u8g2/production/u8g2/u8x8_u8toa.o
 .text          0x00000000        0x0 /var/folders/0c/nzpv5tdd6fd7x9vsgqwt8kmc0000gn/T//ccdT9R1U.o
 .data          0x00000000        0x0 /var/folders/0c/nzpv5tdd6fd7x9vsgqwt8kmc0000gn/T//ccdT9R1U.o
 .bss           0x00000000        0x0 /var/folders/0c/nzpv5tdd6fd7x9vsgqwt8kmc0000gn/T//ccdT9R1U.o
 .reginfo       0x00000000       0x18 /var/folders/0c/nzpv5tdd6fd7x9vsgqwt8kmc0000gn/T//ccdT9R1U.o
 .text          0x00000000        0x0 /var/folders/0c/nzpv5tdd6fd7x9vsgqwt8kmc0000gn/T//cc9yBjCJ.o
 .data          0x00000000        0x0 /var/folders/0c/nzpv5tdd6fd7x9vsgqwt8kmc0000gn/T//cc9yBjCJ.o
 .bss           0x00000000        0x0 /var/folders/0c/nzpv5tdd6fd7x9vsgqwt8kmc0000gn/T//cc9yBjCJ.o
 .reginfo       0x00000000       0x18 /var/folders/0c/nzpv5tdd6fd7x9vsgqwt8kmc0000gn/T//cc9yBjCJ.o
 .text          0x00000000        0x0 /var/folders/0c/nzpv5tdd6fd7x9vsgqwt8kmc0000gn/T//cc4RWdc2.o
 .data          0x00000000        0x0 /var/folders/0c/nzpv5tdd6fd7x9vsgqwt8kmc0000gn/T//cc4RWdc2.o
 .bss           0x00000000        0x0 /var/folders/0c/nzpv5tdd6fd7x9vsgqwt8kmc0000gn/T//cc4RWdc2.o
 .reginfo       0x00000000       0x18 /var/folders/0c/nzpv5tdd6fd7x9vsgqwt8kmc0000gn/T//cc4RWdc2.o
 .discard       0x00000000       0xb0 /var/folders/0c/nzpv5tdd6fd7x9vsgqwt8kmc0000gn/T//cc4RWdc2.o
 .data          0x00000000        0x0 /Applications/microchip/xc32/v2.50/bin/bin/../../lib/gcc/pic32mx/4.8.3/../../../../pic32mx/lib/pic32_software_reset.o
 .bss           0x00000000        0x0 /Applications/microchip/xc32/v2.50/bin/bin/../../lib/gcc/pic32mx/4.8.3/../../../../pic32mx/lib/pic32_software_reset.o
 .reginfo       0x00000000       0x18 /Applications/microchip/xc32/v2.50/bin/bin/../../lib/gcc/pic32mx/4.8.3/../../../../pic32mx/lib/pic32_software_reset.o
 .text          0x00000000        0x0 /Applications/microchip/xc32/v2.50/bin/bin/../../lib/gcc/pic32mx/4.8.3/../../../../pic32mx/lib/./proc/32MX170F256B/processor.o
 .data          0x00000000        0x0 /Applications/microchip/xc32/v2.50/bin/bin/../../lib/gcc/pic32mx/4.8.3/../../../../pic32mx/lib/./proc/32MX170F256B/processor.o
 .bss           0x00000000        0x0 /Applications/microchip/xc32/v2.50/bin/bin/../../lib/gcc/pic32mx/4.8.3/../../../../pic32mx/lib/./proc/32MX170F256B/processor.o
 .reginfo       0x00000000       0x18 /Applications/microchip/xc32/v2.50/bin/bin/../../lib/gcc/pic32mx/4.8.3/../../../../pic32mx/lib/./proc/32MX170F256B/processor.o
 .data          0x00000000        0x0 /Applications/microchip/xc32/v2.50/bin/bin/../../lib/gcc/pic32mx/4.8.3/libgcc.a(floatunsidf.o)
 .bss           0x00000000        0x0 /Applications/microchip/xc32/v2.50/bin/bin/../../lib/gcc/pic32mx/4.8.3/libgcc.a(floatunsidf.o)
 .reginfo       0x00000000       0x18 /Applications/microchip/xc32/v2.50/bin/bin/../../lib/gcc/pic32mx/4.8.3/libgcc.a(floatunsidf.o)
 .data          0x00000000        0x0 /Applications/microchip/xc32/v2.50/bin/bin/../../lib/gcc/pic32mx/4.8.3/../../../../pic32mx/lib/libpic32.a(memset.o)
 .bss           0x00000000        0x0 /Applications/microchip/xc32/v2.50/bin/bin/../../lib/gcc/pic32mx/4.8.3/../../../../pic32mx/lib/libpic32.a(memset.o)
 .reginfo       0x00000000       0x18 /Applications/microchip/xc32/v2.50/bin/bin/../../lib/gcc/pic32mx/4.8.3/../../../../pic32mx/lib/libpic32.a(memset.o)
 .text          0x00000000        0x0 /Applications/microchip/xc32/v2.50/bin/bin/../../lib/gcc/pic32mx/4.8.3/../../../../pic32mx/lib/libpic32.a(default-bootstrap-exception-handler.o)
 .data          0x00000000        0x0 /Applications/microchip/xc32/v2.50/bin/bin/../../lib/gcc/pic32mx/4.8.3/../../../../pic32mx/lib/libpic32.a(default-bootstrap-exception-handler.o)
 .bss           0x00000000        0x0 /Applications/microchip/xc32/v2.50/bin/bin/../../lib/gcc/pic32mx/4.8.3/../../../../pic32mx/lib/libpic32.a(default-bootstrap-exception-handler.o)
 .reginfo       0x00000000       0x18 /Applications/microchip/xc32/v2.50/bin/bin/../../lib/gcc/pic32mx/4.8.3/../../../../pic32mx/lib/libpic32.a(default-bootstrap-exception-handler.o)
 .text          0x00000000        0x0 /Applications/microchip/xc32/v2.50/bin/bin/../../lib/gcc/pic32mx/4.8.3/../../../../pic32mx/lib/libpic32.a(default-on-reset.o)
 .data          0x00000000        0x0 /Applications/microchip/xc32/v2.50/bin/bin/../../lib/gcc/pic32mx/4.8.3/../../../../pic32mx/lib/libpic32.a(default-on-reset.o)
 .bss           0x00000000        0x0 /Applications/microchip/xc32/v2.50/bin/bin/../../lib/gcc/pic32mx/4.8.3/../../../../pic32mx/lib/libpic32.a(default-on-reset.o)
 .reginfo       0x00000000       0x18 /Applications/microchip/xc32/v2.50/bin/bin/../../lib/gcc/pic32mx/4.8.3/../../../../pic32mx/lib/libpic32.a(default-on-reset.o)
 .text          0x00000000        0x0 /Applications/microchip/xc32/v2.50/bin/bin/../../lib/gcc/pic32mx/4.8.3/../../../../pic32mx/lib/libpic32.a(default-on-bootstrap.o)
 .data          0x00000000        0x0 /Applications/microchip/xc32/v2.50/bin/bin/../../lib/gcc/pic32mx/4.8.3/../../../../pic32mx/lib/libpic32.a(default-on-bootstrap.o)
 .bss           0x00000000        0x0 /Applications/microchip/xc32/v2.50/bin/bin/../../lib/gcc/pic32mx/4.8.3/../../../../pic32mx/lib/libpic32.a(default-on-bootstrap.o)
 .reginfo       0x00000000       0x18 /Applications/microchip/xc32/v2.50/bin/bin/../../lib/gcc/pic32mx/4.8.3/../../../../pic32mx/lib/libpic32.a(default-on-bootstrap.o)
 .data          0x00000000        0x0 /Applications/microchip/xc32/v2.50/bin/bin/../../lib/gcc/pic32mx/4.8.3/../../../../pic32mx/lib/libpic32.a(default-nmi-handler.o)
 .bss           0x00000000        0x0 /Applications/microchip/xc32/v2.50/bin/bin/../../lib/gcc/pic32mx/4.8.3/../../../../pic32mx/lib/libpic32.a(default-nmi-handler.o)
 .reginfo       0x00000000       0x18 /Applications/microchip/xc32/v2.50/bin/bin/../../lib/gcc/pic32mx/4.8.3/../../../../pic32mx/lib/libpic32.a(default-nmi-handler.o)
 .text          0x00000000        0x0 /Applications/microchip/xc32/v2.50/bin/bin/../../lib/gcc/pic32mx/4.8.3/../../../../pic32mx/lib/libpic32.a(xc32_uart.o)
 .data          0x00000000        0x0 /Applications/microchip/xc32/v2.50/bin/bin/../../lib/gcc/pic32mx/4.8.3/../../../../pic32mx/lib/libpic32.a(xc32_uart.o)
 .bss           0x00000000        0x0 /Applications/microchip/xc32/v2.50/bin/bin/../../lib/gcc/pic32mx/4.8.3/../../../../pic32mx/lib/libpic32.a(xc32_uart.o)
 .reginfo       0x00000000       0x18 /Applications/microchip/xc32/v2.50/bin/bin/../../lib/gcc/pic32mx/4.8.3/../../../../pic32mx/lib/libpic32.a(xc32_uart.o)
 .data          0x00000000        0x0 /Applications/microchip/xc32/v2.50/bin/bin/../../lib/gcc/pic32mx/4.8.3/../../../../pic32mx/lib/libpic32.a(pic32_data_init.o)
 .bss           0x00000000        0x0 /Applications/microchip/xc32/v2.50/bin/bin/../../lib/gcc/pic32mx/4.8.3/../../../../pic32mx/lib/libpic32.a(pic32_data_init.o)
 .reginfo       0x00000000       0x18 /Applications/microchip/xc32/v2.50/bin/bin/../../lib/gcc/pic32mx/4.8.3/../../../../pic32mx/lib/libpic32.a(pic32_data_init.o)
 .text          0x00000000        0x0 /Applications/microchip/xc32/v2.50/bin/bin/../../lib/gcc/pic32mx/4.8.3/../../../../pic32mx/lib/libpic32.a(general-exception.o)
 .data          0x00000000        0x0 /Applications/microchip/xc32/v2.50/bin/bin/../../lib/gcc/pic32mx/4.8.3/../../../../pic32mx/lib/libpic32.a(general-exception.o)
 .bss           0x00000000        0x0 /Applications/microchip/xc32/v2.50/bin/bin/../../lib/gcc/pic32mx/4.8.3/../../../../pic32mx/lib/libpic32.a(general-exception.o)
 .reginfo       0x00000000       0x18 /Applications/microchip/xc32/v2.50/bin/bin/../../lib/gcc/pic32mx/4.8.3/../../../../pic32mx/lib/libpic32.a(general-exception.o)
 .text          0x00000000        0x0 /Applications/microchip/xc32/v2.50/bin/bin/../../lib/gcc/pic32mx/4.8.3/../../../../pic32mx/lib/libpic32.a(vector1.o)
 .data          0x00000000        0x0 /Applications/microchip/xc32/v2.50/bin/bin/../../lib/gcc/pic32mx/4.8.3/../../../../pic32mx/lib/libpic32.a(vector1.o)
 .bss           0x00000000        0x0 /Applications/microchip/xc32/v2.50/bin/bin/../../lib/gcc/pic32mx/4.8.3/../../../../pic32mx/lib/libpic32.a(vector1.o)
 .reginfo       0x00000000       0x18 /Applications/microchip/xc32/v2.50/bin/bin/../../lib/gcc/pic32mx/4.8.3/../../../../pic32mx/lib/libpic32.a(vector1.o)
 .text          0x00000000        0x0 /Applications/microchip/xc32/v2.50/bin/bin/../../lib/gcc/pic32mx/4.8.3/../../../../pic32mx/lib/libpic32.a(vector2.o)
 .data          0x00000000        0x0 /Applications/microchip/xc32/v2.50/bin/bin/../../lib/gcc/pic32mx/4.8.3/../../../../pic32mx/lib/libpic32.a(vector2.o)
 .bss           0x00000000        0x0 /Applications/microchip/xc32/v2.50/bin/bin/../../lib/gcc/pic32mx/4.8.3/../../../../pic32mx/lib/libpic32.a(vector2.o)
 .reginfo       0x00000000       0x18 /Applications/microchip/xc32/v2.50/bin/bin/../../lib/gcc/pic32mx/4.8.3/../../../../pic32mx/lib/libpic32.a(vector2.o)
 .text          0x00000000        0x0 /Applications/microchip/xc32/v2.50/bin/bin/../../lib/gcc/pic32mx/4.8.3/../../../../pic32mx/lib/libpic32.a(vector3.o)
 .data          0x00000000        0x0 /Applications/microchip/xc32/v2.50/bin/bin/../../lib/gcc/pic32mx/4.8.3/../../../../pic32mx/lib/libpic32.a(vector3.o)
 .bss           0x00000000        0x0 /Applications/microchip/xc32/v2.50/bin/bin/../../lib/gcc/pic32mx/4.8.3/../../../../pic32mx/lib/libpic32.a(vector3.o)
 .reginfo       0x00000000       0x18 /Applications/microchip/xc32/v2.50/bin/bin/../../lib/gcc/pic32mx/4.8.3/../../../../pic32mx/lib/libpic32.a(vector3.o)
 .text          0x00000000        0x0 /Applications/microchip/xc32/v2.50/bin/bin/../../lib/gcc/pic32mx/4.8.3/../../../../pic32mx/lib/libpic32.a(vector4.o)
 .data          0x00000000        0x0 /Applications/microchip/xc32/v2.50/bin/bin/../../lib/gcc/pic32mx/4.8.3/../../../../pic32mx/lib/libpic32.a(vector4.o)
 .bss           0x00000000        0x0 /Applications/microchip/xc32/v2.50/bin/bin/../../lib/gcc/pic32mx/4.8.3/../../../../pic32mx/lib/libpic32.a(vector4.o)
 .reginfo       0x00000000       0x18 /Applications/microchip/xc32/v2.50/bin/bin/../../lib/gcc/pic32mx/4.8.3/../../../../pic32mx/lib/libpic32.a(vector4.o)
 .text          0x00000000        0x0 /Applications/microchip/xc32/v2.50/bin/bin/../../lib/gcc/pic32mx/4.8.3/../../../../pic32mx/lib/libpic32.a(vector5.o)
 .data          0x00000000        0x0 /Applications/microchip/xc32/v2.50/bin/bin/../../lib/gcc/pic32mx/4.8.3/../../../../pic32mx/lib/libpic32.a(vector5.o)
 .bss           0x00000000        0x0 /Applications/microchip/xc32/v2.50/bin/bin/../../lib/gcc/pic32mx/4.8.3/../../../../pic32mx/lib/libpic32.a(vector5.o)
 .reginfo       0x00000000       0x18 /Applications/microchip/xc32/v2.50/bin/bin/../../lib/gcc/pic32mx/4.8.3/../../../../pic32mx/lib/libpic32.a(vector5.o)
 .text          0x00000000        0x0 /Applications/microchip/xc32/v2.50/bin/bin/../../lib/gcc/pic32mx/4.8.3/../../../../pic32mx/lib/libpic32.a(vector6.o)
 .data          0x00000000        0x0 /Applications/microchip/xc32/v2.50/bin/bin/../../lib/gcc/pic32mx/4.8.3/../../../../pic32mx/lib/libpic32.a(vector6.o)
 .bss           0x00000000        0x0 /Applications/microchip/xc32/v2.50/bin/bin/../../lib/gcc/pic32mx/4.8.3/../../../../pic32mx/lib/libpic32.a(vector6.o)
 .reginfo       0x00000000       0x18 /Applications/microchip/xc32/v2.50/bin/bin/../../lib/gcc/pic32mx/4.8.3/../../../../pic32mx/lib/libpic32.a(vector6.o)
 .text          0x00000000        0x0 /Applications/microchip/xc32/v2.50/bin/bin/../../lib/gcc/pic32mx/4.8.3/../../../../pic32mx/lib/libpic32.a(vector7.o)
 .data          0x00000000        0x0 /Applications/microchip/xc32/v2.50/bin/bin/../../lib/gcc/pic32mx/4.8.3/../../../../pic32mx/lib/libpic32.a(vector7.o)
 .bss           0x00000000        0x0 /Applications/microchip/xc32/v2.50/bin/bin/../../lib/gcc/pic32mx/4.8.3/../../../../pic32mx/lib/libpic32.a(vector7.o)
 .reginfo       0x00000000       0x18 /Applications/microchip/xc32/v2.50/bin/bin/../../lib/gcc/pic32mx/4.8.3/../../../../pic32mx/lib/libpic32.a(vector7.o)
 .text          0x00000000        0x0 /Applications/microchip/xc32/v2.50/bin/bin/../../lib/gcc/pic32mx/4.8.3/../../../../pic32mx/lib/libpic32.a(vector9.o)
 .data          0x00000000        0x0 /Applications/microchip/xc32/v2.50/bin/bin/../../lib/gcc/pic32mx/4.8.3/../../../../pic32mx/lib/libpic32.a(vector9.o)
 .bss           0x00000000        0x0 /Applications/microchip/xc32/v2.50/bin/bin/../../lib/gcc/pic32mx/4.8.3/../../../../pic32mx/lib/libpic32.a(vector9.o)
 .reginfo       0x00000000       0x18 /Applications/microchip/xc32/v2.50/bin/bin/../../lib/gcc/pic32mx/4.8.3/../../../../pic32mx/lib/libpic32.a(vector9.o)
 .text          0x00000000        0x0 /Applications/microchip/xc32/v2.50/bin/bin/../../lib/gcc/pic32mx/4.8.3/../../../../pic32mx/lib/libpic32.a(vector10.o)
 .data          0x00000000        0x0 /Applications/microchip/xc32/v2.50/bin/bin/../../lib/gcc/pic32mx/4.8.3/../../../../pic32mx/lib/libpic32.a(vector10.o)
 .bss           0x00000000        0x0 /Applications/microchip/xc32/v2.50/bin/bin/../../lib/gcc/pic32mx/4.8.3/../../../../pic32mx/lib/libpic32.a(vector10.o)
 .reginfo       0x00000000       0x18 /Applications/microchip/xc32/v2.50/bin/bin/../../lib/gcc/pic32mx/4.8.3/../../../../pic32mx/lib/libpic32.a(vector10.o)
 .text          0x00000000        0x0 /Applications/microchip/xc32/v2.50/bin/bin/../../lib/gcc/pic32mx/4.8.3/../../../../pic32mx/lib/libpic32.a(vector11.o)
 .data          0x00000000        0x0 /Applications/microchip/xc32/v2.50/bin/bin/../../lib/gcc/pic32mx/4.8.3/../../../../pic32mx/lib/libpic32.a(vector11.o)
 .bss           0x00000000        0x0 /Applications/microchip/xc32/v2.50/bin/bin/../../lib/gcc/pic32mx/4.8.3/../../../../pic32mx/lib/libpic32.a(vector11.o)
 .reginfo       0x00000000       0x18 /Applications/microchip/xc32/v2.50/bin/bin/../../lib/gcc/pic32mx/4.8.3/../../../../pic32mx/lib/libpic32.a(vector11.o)
 .text          0x00000000        0x0 /Applications/microchip/xc32/v2.50/bin/bin/../../lib/gcc/pic32mx/4.8.3/../../../../pic32mx/lib/libpic32.a(vector12.o)
 .data          0x00000000        0x0 /Applications/microchip/xc32/v2.50/bin/bin/../../lib/gcc/pic32mx/4.8.3/../../../../pic32mx/lib/libpic32.a(vector12.o)
 .bss           0x00000000        0x0 /Applications/microchip/xc32/v2.50/bin/bin/../../lib/gcc/pic32mx/4.8.3/../../../../pic32mx/lib/libpic32.a(vector12.o)
 .reginfo       0x00000000       0x18 /Applications/microchip/xc32/v2.50/bin/bin/../../lib/gcc/pic32mx/4.8.3/../../../../pic32mx/lib/libpic32.a(vector12.o)
 .text          0x00000000        0x0 /Applications/microchip/xc32/v2.50/bin/bin/../../lib/gcc/pic32mx/4.8.3/../../../../pic32mx/lib/libpic32.a(vector13.o)
 .data          0x00000000        0x0 /Applications/microchip/xc32/v2.50/bin/bin/../../lib/gcc/pic32mx/4.8.3/../../../../pic32mx/lib/libpic32.a(vector13.o)
 .bss           0x00000000        0x0 /Applications/microchip/xc32/v2.50/bin/bin/../../lib/gcc/pic32mx/4.8.3/../../../../pic32mx/lib/libpic32.a(vector13.o)
 .reginfo       0x00000000       0x18 /Applications/microchip/xc32/v2.50/bin/bin/../../lib/gcc/pic32mx/4.8.3/../../../../pic32mx/lib/libpic32.a(vector13.o)
 .text          0x00000000        0x0 /Applications/microchip/xc32/v2.50/bin/bin/../../lib/gcc/pic32mx/4.8.3/../../../../pic32mx/lib/libpic32.a(vector14.o)
 .data          0x00000000        0x0 /Applications/microchip/xc32/v2.50/bin/bin/../../lib/gcc/pic32mx/4.8.3/../../../../pic32mx/lib/libpic32.a(vector14.o)
 .bss           0x00000000        0x0 /Applications/microchip/xc32/v2.50/bin/bin/../../lib/gcc/pic32mx/4.8.3/../../../../pic32mx/lib/libpic32.a(vector14.o)
 .reginfo       0x00000000       0x18 /Applications/microchip/xc32/v2.50/bin/bin/../../lib/gcc/pic32mx/4.8.3/../../../../pic32mx/lib/libpic32.a(vector14.o)
 .text          0x00000000        0x0 /Applications/microchip/xc32/v2.50/bin/bin/../../lib/gcc/pic32mx/4.8.3/../../../../pic32mx/lib/libpic32.a(vector15.o)
 .data          0x00000000        0x0 /Applications/microchip/xc32/v2.50/bin/bin/../../lib/gcc/pic32mx/4.8.3/../../../../pic32mx/lib/libpic32.a(vector15.o)
 .bss           0x00000000        0x0 /Applications/microchip/xc32/v2.50/bin/bin/../../lib/gcc/pic32mx/4.8.3/../../../../pic32mx/lib/libpic32.a(vector15.o)
 .reginfo       0x00000000       0x18 /Applications/microchip/xc32/v2.50/bin/bin/../../lib/gcc/pic32mx/4.8.3/../../../../pic32mx/lib/libpic32.a(vector15.o)
 .text          0x00000000        0x0 /Applications/microchip/xc32/v2.50/bin/bin/../../lib/gcc/pic32mx/4.8.3/../../../../pic32mx/lib/libpic32.a(vector16.o)
 .data          0x00000000        0x0 /Applications/microchip/xc32/v2.50/bin/bin/../../lib/gcc/pic32mx/4.8.3/../../../../pic32mx/lib/libpic32.a(vector16.o)
 .bss           0x00000000        0x0 /Applications/microchip/xc32/v2.50/bin/bin/../../lib/gcc/pic32mx/4.8.3/../../../../pic32mx/lib/libpic32.a(vector16.o)
 .reginfo       0x00000000       0x18 /Applications/microchip/xc32/v2.50/bin/bin/../../lib/gcc/pic32mx/4.8.3/../../../../pic32mx/lib/libpic32.a(vector16.o)
 .text          0x00000000        0x0 /Applications/microchip/xc32/v2.50/bin/bin/../../lib/gcc/pic32mx/4.8.3/../../../../pic32mx/lib/libpic32.a(vector17.o)
 .data          0x00000000        0x0 /Applications/microchip/xc32/v2.50/bin/bin/../../lib/gcc/pic32mx/4.8.3/../../../../pic32mx/lib/libpic32.a(vector17.o)
 .bss           0x00000000        0x0 /Applications/microchip/xc32/v2.50/bin/bin/../../lib/gcc/pic32mx/4.8.3/../../../../pic32mx/lib/libpic32.a(vector17.o)
 .reginfo       0x00000000       0x18 /Applications/microchip/xc32/v2.50/bin/bin/../../lib/gcc/pic32mx/4.8.3/../../../../pic32mx/lib/libpic32.a(vector17.o)
 .text          0x00000000        0x0 /Applications/microchip/xc32/v2.50/bin/bin/../../lib/gcc/pic32mx/4.8.3/../../../../pic32mx/lib/libpic32.a(vector18.o)
 .data          0x00000000        0x0 /Applications/microchip/xc32/v2.50/bin/bin/../../lib/gcc/pic32mx/4.8.3/../../../../pic32mx/lib/libpic32.a(vector18.o)
 .bss           0x00000000        0x0 /Applications/microchip/xc32/v2.50/bin/bin/../../lib/gcc/pic32mx/4.8.3/../../../../pic32mx/lib/libpic32.a(vector18.o)
 .reginfo       0x00000000       0x18 /Applications/microchip/xc32/v2.50/bin/bin/../../lib/gcc/pic32mx/4.8.3/../../../../pic32mx/lib/libpic32.a(vector18.o)
 .text          0x00000000        0x0 /Applications/microchip/xc32/v2.50/bin/bin/../../lib/gcc/pic32mx/4.8.3/../../../../pic32mx/lib/libpic32.a(vector19.o)
 .data          0x00000000        0x0 /Applications/microchip/xc32/v2.50/bin/bin/../../lib/gcc/pic32mx/4.8.3/../../../../pic32mx/lib/libpic32.a(vector19.o)
 .bss           0x00000000        0x0 /Applications/microchip/xc32/v2.50/bin/bin/../../lib/gcc/pic32mx/4.8.3/../../../../pic32mx/lib/libpic32.a(vector19.o)
 .reginfo       0x00000000       0x18 /Applications/microchip/xc32/v2.50/bin/bin/../../lib/gcc/pic32mx/4.8.3/../../../../pic32mx/lib/libpic32.a(vector19.o)
 .text          0x00000000        0x0 /Applications/microchip/xc32/v2.50/bin/bin/../../lib/gcc/pic32mx/4.8.3/../../../../pic32mx/lib/libpic32.a(vector20.o)
 .data          0x00000000        0x0 /Applications/microchip/xc32/v2.50/bin/bin/../../lib/gcc/pic32mx/4.8.3/../../../../pic32mx/lib/libpic32.a(vector20.o)
 .bss           0x00000000        0x0 /Applications/microchip/xc32/v2.50/bin/bin/../../lib/gcc/pic32mx/4.8.3/../../../../pic32mx/lib/libpic32.a(vector20.o)
 .reginfo       0x00000000       0x18 /Applications/microchip/xc32/v2.50/bin/bin/../../lib/gcc/pic32mx/4.8.3/../../../../pic32mx/lib/libpic32.a(vector20.o)
 .text          0x00000000        0x0 /Applications/microchip/xc32/v2.50/bin/bin/../../lib/gcc/pic32mx/4.8.3/../../../../pic32mx/lib/libpic32.a(vector21.o)
 .data          0x00000000        0x0 /Applications/microchip/xc32/v2.50/bin/bin/../../lib/gcc/pic32mx/4.8.3/../../../../pic32mx/lib/libpic32.a(vector21.o)
 .bss           0x00000000        0x0 /Applications/microchip/xc32/v2.50/bin/bin/../../lib/gcc/pic32mx/4.8.3/../../../../pic32mx/lib/libpic32.a(vector21.o)
 .reginfo       0x00000000       0x18 /Applications/microchip/xc32/v2.50/bin/bin/../../lib/gcc/pic32mx/4.8.3/../../../../pic32mx/lib/libpic32.a(vector21.o)
 .text          0x00000000        0x0 /Applications/microchip/xc32/v2.50/bin/bin/../../lib/gcc/pic32mx/4.8.3/../../../../pic32mx/lib/libpic32.a(vector22.o)
 .data          0x00000000        0x0 /Applications/microchip/xc32/v2.50/bin/bin/../../lib/gcc/pic32mx/4.8.3/../../../../pic32mx/lib/libpic32.a(vector22.o)
 .bss           0x00000000        0x0 /Applications/microchip/xc32/v2.50/bin/bin/../../lib/gcc/pic32mx/4.8.3/../../../../pic32mx/lib/libpic32.a(vector22.o)
 .reginfo       0x00000000       0x18 /Applications/microchip/xc32/v2.50/bin/bin/../../lib/gcc/pic32mx/4.8.3/../../../../pic32mx/lib/libpic32.a(vector22.o)
 .text          0x00000000        0x0 /Applications/microchip/xc32/v2.50/bin/bin/../../lib/gcc/pic32mx/4.8.3/../../../../pic32mx/lib/libpic32.a(vector23.o)
 .data          0x00000000        0x0 /Applications/microchip/xc32/v2.50/bin/bin/../../lib/gcc/pic32mx/4.8.3/../../../../pic32mx/lib/libpic32.a(vector23.o)
 .bss           0x00000000        0x0 /Applications/microchip/xc32/v2.50/bin/bin/../../lib/gcc/pic32mx/4.8.3/../../../../pic32mx/lib/libpic32.a(vector23.o)
 .reginfo       0x00000000       0x18 /Applications/microchip/xc32/v2.50/bin/bin/../../lib/gcc/pic32mx/4.8.3/../../../../pic32mx/lib/libpic32.a(vector23.o)
 .text          0x00000000        0x0 /Applications/microchip/xc32/v2.50/bin/bin/../../lib/gcc/pic32mx/4.8.3/../../../../pic32mx/lib/libpic32.a(vector24.o)
 .data          0x00000000        0x0 /Applications/microchip/xc32/v2.50/bin/bin/../../lib/gcc/pic32mx/4.8.3/../../../../pic32mx/lib/libpic32.a(vector24.o)
 .bss           0x00000000        0x0 /Applications/microchip/xc32/v2.50/bin/bin/../../lib/gcc/pic32mx/4.8.3/../../../../pic32mx/lib/libpic32.a(vector24.o)
 .reginfo       0x00000000       0x18 /Applications/microchip/xc32/v2.50/bin/bin/../../lib/gcc/pic32mx/4.8.3/../../../../pic32mx/lib/libpic32.a(vector24.o)
 .text          0x00000000        0x0 /Applications/microchip/xc32/v2.50/bin/bin/../../lib/gcc/pic32mx/4.8.3/../../../../pic32mx/lib/libpic32.a(vector25.o)
 .data          0x00000000        0x0 /Applications/microchip/xc32/v2.50/bin/bin/../../lib/gcc/pic32mx/4.8.3/../../../../pic32mx/lib/libpic32.a(vector25.o)
 .bss           0x00000000        0x0 /Applications/microchip/xc32/v2.50/bin/bin/../../lib/gcc/pic32mx/4.8.3/../../../../pic32mx/lib/libpic32.a(vector25.o)
 .reginfo       0x00000000       0x18 /Applications/microchip/xc32/v2.50/bin/bin/../../lib/gcc/pic32mx/4.8.3/../../../../pic32mx/lib/libpic32.a(vector25.o)
 .text          0x00000000        0x0 /Applications/microchip/xc32/v2.50/bin/bin/../../lib/gcc/pic32mx/4.8.3/../../../../pic32mx/lib/libpic32.a(vector26.o)
 .data          0x00000000        0x0 /Applications/microchip/xc32/v2.50/bin/bin/../../lib/gcc/pic32mx/4.8.3/../../../../pic32mx/lib/libpic32.a(vector26.o)
 .bss           0x00000000        0x0 /Applications/microchip/xc32/v2.50/bin/bin/../../lib/gcc/pic32mx/4.8.3/../../../../pic32mx/lib/libpic32.a(vector26.o)
 .reginfo       0x00000000       0x18 /Applications/microchip/xc32/v2.50/bin/bin/../../lib/gcc/pic32mx/4.8.3/../../../../pic32mx/lib/libpic32.a(vector26.o)
 .text          0x00000000        0x0 /Applications/microchip/xc32/v2.50/bin/bin/../../lib/gcc/pic32mx/4.8.3/../../../../pic32mx/lib/libpic32.a(vector27.o)
 .data          0x00000000        0x0 /Applications/microchip/xc32/v2.50/bin/bin/../../lib/gcc/pic32mx/4.8.3/../../../../pic32mx/lib/libpic32.a(vector27.o)
 .bss           0x00000000        0x0 /Applications/microchip/xc32/v2.50/bin/bin/../../lib/gcc/pic32mx/4.8.3/../../../../pic32mx/lib/libpic32.a(vector27.o)
 .reginfo       0x00000000       0x18 /Applications/microchip/xc32/v2.50/bin/bin/../../lib/gcc/pic32mx/4.8.3/../../../../pic32mx/lib/libpic32.a(vector27.o)
 .text          0x00000000        0x0 /Applications/microchip/xc32/v2.50/bin/bin/../../lib/gcc/pic32mx/4.8.3/../../../../pic32mx/lib/libpic32.a(vector28.o)
 .data          0x00000000        0x0 /Applications/microchip/xc32/v2.50/bin/bin/../../lib/gcc/pic32mx/4.8.3/../../../../pic32mx/lib/libpic32.a(vector28.o)
 .bss           0x00000000        0x0 /Applications/microchip/xc32/v2.50/bin/bin/../../lib/gcc/pic32mx/4.8.3/../../../../pic32mx/lib/libpic32.a(vector28.o)
 .reginfo       0x00000000       0x18 /Applications/microchip/xc32/v2.50/bin/bin/../../lib/gcc/pic32mx/4.8.3/../../../../pic32mx/lib/libpic32.a(vector28.o)
 .text          0x00000000        0x0 /Applications/microchip/xc32/v2.50/bin/bin/../../lib/gcc/pic32mx/4.8.3/../../../../pic32mx/lib/libpic32.a(vector29.o)
 .data          0x00000000        0x0 /Applications/microchip/xc32/v2.50/bin/bin/../../lib/gcc/pic32mx/4.8.3/../../../../pic32mx/lib/libpic32.a(vector29.o)
 .bss           0x00000000        0x0 /Applications/microchip/xc32/v2.50/bin/bin/../../lib/gcc/pic32mx/4.8.3/../../../../pic32mx/lib/libpic32.a(vector29.o)
 .reginfo       0x00000000       0x18 /Applications/microchip/xc32/v2.50/bin/bin/../../lib/gcc/pic32mx/4.8.3/../../../../pic32mx/lib/libpic32.a(vector29.o)
 .text          0x00000000        0x0 /Applications/microchip/xc32/v2.50/bin/bin/../../lib/gcc/pic32mx/4.8.3/../../../../pic32mx/lib/libpic32.a(vector30.o)
 .data          0x00000000        0x0 /Applications/microchip/xc32/v2.50/bin/bin/../../lib/gcc/pic32mx/4.8.3/../../../../pic32mx/lib/libpic32.a(vector30.o)
 .bss           0x00000000        0x0 /Applications/microchip/xc32/v2.50/bin/bin/../../lib/gcc/pic32mx/4.8.3/../../../../pic32mx/lib/libpic32.a(vector30.o)
 .reginfo       0x00000000       0x18 /Applications/microchip/xc32/v2.50/bin/bin/../../lib/gcc/pic32mx/4.8.3/../../../../pic32mx/lib/libpic32.a(vector30.o)
 .text          0x00000000        0x0 /Applications/microchip/xc32/v2.50/bin/bin/../../lib/gcc/pic32mx/4.8.3/../../../../pic32mx/lib/libpic32.a(vector31.o)
 .data          0x00000000        0x0 /Applications/microchip/xc32/v2.50/bin/bin/../../lib/gcc/pic32mx/4.8.3/../../../../pic32mx/lib/libpic32.a(vector31.o)
 .bss           0x00000000        0x0 /Applications/microchip/xc32/v2.50/bin/bin/../../lib/gcc/pic32mx/4.8.3/../../../../pic32mx/lib/libpic32.a(vector31.o)
 .reginfo       0x00000000       0x18 /Applications/microchip/xc32/v2.50/bin/bin/../../lib/gcc/pic32mx/4.8.3/../../../../pic32mx/lib/libpic32.a(vector31.o)
 .text          0x00000000        0x0 /Applications/microchip/xc32/v2.50/bin/bin/../../lib/gcc/pic32mx/4.8.3/../../../../pic32mx/lib/libpic32.a(vector32.o)
 .data          0x00000000        0x0 /Applications/microchip/xc32/v2.50/bin/bin/../../lib/gcc/pic32mx/4.8.3/../../../../pic32mx/lib/libpic32.a(vector32.o)
 .bss           0x00000000        0x0 /Applications/microchip/xc32/v2.50/bin/bin/../../lib/gcc/pic32mx/4.8.3/../../../../pic32mx/lib/libpic32.a(vector32.o)
 .reginfo       0x00000000       0x18 /Applications/microchip/xc32/v2.50/bin/bin/../../lib/gcc/pic32mx/4.8.3/../../../../pic32mx/lib/libpic32.a(vector32.o)
 .text          0x00000000        0x0 /Applications/microchip/xc32/v2.50/bin/bin/../../lib/gcc/pic32mx/4.8.3/../../../../pic32mx/lib/libpic32.a(vector33.o)
 .data          0x00000000        0x0 /Applications/microchip/xc32/v2.50/bin/bin/../../lib/gcc/pic32mx/4.8.3/../../../../pic32mx/lib/libpic32.a(vector33.o)
 .bss           0x00000000        0x0 /Applications/microchip/xc32/v2.50/bin/bin/../../lib/gcc/pic32mx/4.8.3/../../../../pic32mx/lib/libpic32.a(vector33.o)
 .reginfo       0x00000000       0x18 /Applications/microchip/xc32/v2.50/bin/bin/../../lib/gcc/pic32mx/4.8.3/../../../../pic32mx/lib/libpic32.a(vector33.o)
 .text          0x00000000        0x0 /Applications/microchip/xc32/v2.50/bin/bin/../../lib/gcc/pic32mx/4.8.3/../../../../pic32mx/lib/libpic32.a(vector34.o)
 .data          0x00000000        0x0 /Applications/microchip/xc32/v2.50/bin/bin/../../lib/gcc/pic32mx/4.8.3/../../../../pic32mx/lib/libpic32.a(vector34.o)
 .bss           0x00000000        0x0 /Applications/microchip/xc32/v2.50/bin/bin/../../lib/gcc/pic32mx/4.8.3/../../../../pic32mx/lib/libpic32.a(vector34.o)
 .reginfo       0x00000000       0x18 /Applications/microchip/xc32/v2.50/bin/bin/../../lib/gcc/pic32mx/4.8.3/../../../../pic32mx/lib/libpic32.a(vector34.o)
 .text          0x00000000        0x0 /Applications/microchip/xc32/v2.50/bin/bin/../../lib/gcc/pic32mx/4.8.3/../../../../pic32mx/lib/libpic32.a(vector35.o)
 .data          0x00000000        0x0 /Applications/microchip/xc32/v2.50/bin/bin/../../lib/gcc/pic32mx/4.8.3/../../../../pic32mx/lib/libpic32.a(vector35.o)
 .bss           0x00000000        0x0 /Applications/microchip/xc32/v2.50/bin/bin/../../lib/gcc/pic32mx/4.8.3/../../../../pic32mx/lib/libpic32.a(vector35.o)
 .reginfo       0x00000000       0x18 /Applications/microchip/xc32/v2.50/bin/bin/../../lib/gcc/pic32mx/4.8.3/../../../../pic32mx/lib/libpic32.a(vector35.o)
 .text          0x00000000        0x0 /Applications/microchip/xc32/v2.50/bin/bin/../../lib/gcc/pic32mx/4.8.3/../../../../pic32mx/lib/libpic32.a(vector36.o)
 .data          0x00000000        0x0 /Applications/microchip/xc32/v2.50/bin/bin/../../lib/gcc/pic32mx/4.8.3/../../../../pic32mx/lib/libpic32.a(vector36.o)
 .bss           0x00000000        0x0 /Applications/microchip/xc32/v2.50/bin/bin/../../lib/gcc/pic32mx/4.8.3/../../../../pic32mx/lib/libpic32.a(vector36.o)
 .reginfo       0x00000000       0x18 /Applications/microchip/xc32/v2.50/bin/bin/../../lib/gcc/pic32mx/4.8.3/../../../../pic32mx/lib/libpic32.a(vector36.o)
 .text          0x00000000        0x0 /Applications/microchip/xc32/v2.50/bin/bin/../../lib/gcc/pic32mx/4.8.3/../../../../pic32mx/lib/libpic32.a(vector38.o)
 .data          0x00000000        0x0 /Applications/microchip/xc32/v2.50/bin/bin/../../lib/gcc/pic32mx/4.8.3/../../../../pic32mx/lib/libpic32.a(vector38.o)
 .bss           0x00000000        0x0 /Applications/microchip/xc32/v2.50/bin/bin/../../lib/gcc/pic32mx/4.8.3/../../../../pic32mx/lib/libpic32.a(vector38.o)
 .reginfo       0x00000000       0x18 /Applications/microchip/xc32/v2.50/bin/bin/../../lib/gcc/pic32mx/4.8.3/../../../../pic32mx/lib/libpic32.a(vector38.o)
 .text          0x00000000        0x0 /Applications/microchip/xc32/v2.50/bin/bin/../../lib/gcc/pic32mx/4.8.3/../../../../pic32mx/lib/libpic32.a(vector39.o)
 .data          0x00000000        0x0 /Applications/microchip/xc32/v2.50/bin/bin/../../lib/gcc/pic32mx/4.8.3/../../../../pic32mx/lib/libpic32.a(vector39.o)
 .bss           0x00000000        0x0 /Applications/microchip/xc32/v2.50/bin/bin/../../lib/gcc/pic32mx/4.8.3/../../../../pic32mx/lib/libpic32.a(vector39.o)
 .reginfo       0x00000000       0x18 /Applications/microchip/xc32/v2.50/bin/bin/../../lib/gcc/pic32mx/4.8.3/../../../../pic32mx/lib/libpic32.a(vector39.o)
 .text          0x00000000        0x0 /Applications/microchip/xc32/v2.50/bin/bin/../../lib/gcc/pic32mx/4.8.3/../../../../pic32mx/lib/libpic32.a(vector40.o)
 .data          0x00000000        0x0 /Applications/microchip/xc32/v2.50/bin/bin/../../lib/gcc/pic32mx/4.8.3/../../../../pic32mx/lib/libpic32.a(vector40.o)
 .bss           0x00000000        0x0 /Applications/microchip/xc32/v2.50/bin/bin/../../lib/gcc/pic32mx/4.8.3/../../../../pic32mx/lib/libpic32.a(vector40.o)
 .reginfo       0x00000000       0x18 /Applications/microchip/xc32/v2.50/bin/bin/../../lib/gcc/pic32mx/4.8.3/../../../../pic32mx/lib/libpic32.a(vector40.o)
 .text          0x00000000        0x0 /Applications/microchip/xc32/v2.50/bin/bin/../../lib/gcc/pic32mx/4.8.3/../../../../pic32mx/lib/libpic32.a(vector41.o)
 .data          0x00000000        0x0 /Applications/microchip/xc32/v2.50/bin/bin/../../lib/gcc/pic32mx/4.8.3/../../../../pic32mx/lib/libpic32.a(vector41.o)
 .bss           0x00000000        0x0 /Applications/microchip/xc32/v2.50/bin/bin/../../lib/gcc/pic32mx/4.8.3/../../../../pic32mx/lib/libpic32.a(vector41.o)
 .reginfo       0x00000000       0x18 /Applications/microchip/xc32/v2.50/bin/bin/../../lib/gcc/pic32mx/4.8.3/../../../../pic32mx/lib/libpic32.a(vector41.o)
 .text          0x00000000        0x0 /Applications/microchip/xc32/v2.50/bin/bin/../../lib/gcc/pic32mx/4.8.3/../../../../pic32mx/lib/libpic32.a(vector42.o)
 .data          0x00000000        0x0 /Applications/microchip/xc32/v2.50/bin/bin/../../lib/gcc/pic32mx/4.8.3/../../../../pic32mx/lib/libpic32.a(vector42.o)
 .bss           0x00000000        0x0 /Applications/microchip/xc32/v2.50/bin/bin/../../lib/gcc/pic32mx/4.8.3/../../../../pic32mx/lib/libpic32.a(vector42.o)
 .reginfo       0x00000000       0x18 /Applications/microchip/xc32/v2.50/bin/bin/../../lib/gcc/pic32mx/4.8.3/../../../../pic32mx/lib/libpic32.a(vector42.o)
 .text          0x00000000        0x0 /Applications/microchip/xc32/v2.50/bin/bin/../../lib/gcc/pic32mx/4.8.3/../../../../pic32mx/lib/libpic32.a(vector43.o)
 .data          0x00000000        0x0 /Applications/microchip/xc32/v2.50/bin/bin/../../lib/gcc/pic32mx/4.8.3/../../../../pic32mx/lib/libpic32.a(vector43.o)
 .bss           0x00000000        0x0 /Applications/microchip/xc32/v2.50/bin/bin/../../lib/gcc/pic32mx/4.8.3/../../../../pic32mx/lib/libpic32.a(vector43.o)
 .reginfo       0x00000000       0x18 /Applications/microchip/xc32/v2.50/bin/bin/../../lib/gcc/pic32mx/4.8.3/../../../../pic32mx/lib/libpic32.a(vector43.o)
 .text          0x00000000        0x0 /Applications/microchip/xc32/v2.50/bin/bin/../../lib/gcc/pic32mx/4.8.3/../../../../pic32mx/lib/libpic32.a(default-general-exception-handler.o)
 .data          0x00000000        0x0 /Applications/microchip/xc32/v2.50/bin/bin/../../lib/gcc/pic32mx/4.8.3/../../../../pic32mx/lib/libpic32.a(default-general-exception-handler.o)
 .bss           0x00000000        0x0 /Applications/microchip/xc32/v2.50/bin/bin/../../lib/gcc/pic32mx/4.8.3/../../../../pic32mx/lib/libpic32.a(default-general-exception-handler.o)
 .reginfo       0x00000000       0x18 /Applications/microchip/xc32/v2.50/bin/bin/../../lib/gcc/pic32mx/4.8.3/../../../../pic32mx/lib/libpic32.a(default-general-exception-handler.o)
 .text          0x00000000        0x0 /Applications/microchip/xc32/v2.50/bin/bin/../../lib/gcc/pic32mx/4.8.3/../../../../pic32mx/lib/libpic32.a(defaultinterrupt.o)
 .data          0x00000000        0x0 /Applications/microchip/xc32/v2.50/bin/bin/../../lib/gcc/pic32mx/4.8.3/../../../../pic32mx/lib/libpic32.a(defaultinterrupt.o)
 .bss           0x00000000        0x0 /Applications/microchip/xc32/v2.50/bin/bin/../../lib/gcc/pic32mx/4.8.3/../../../../pic32mx/lib/libpic32.a(defaultinterrupt.o)
 .reginfo       0x00000000       0x18 /Applications/microchip/xc32/v2.50/bin/bin/../../lib/gcc/pic32mx/4.8.3/../../../../pic32mx/lib/libpic32.a(defaultinterrupt.o)
 .text          0x00000000        0x0 /Applications/microchip/xc32/v2.50/bin/bin/../../lib/gcc/pic32mx/4.8.3/../../../../pic32mx/lib/liblega-c.a(fputc.o)
 .data          0x00000000        0x0 /Applications/microchip/xc32/v2.50/bin/bin/../../lib/gcc/pic32mx/4.8.3/../../../../pic32mx/lib/liblega-c.a(fputc.o)
 .bss           0x00000000        0x0 /Applications/microchip/xc32/v2.50/bin/bin/../../lib/gcc/pic32mx/4.8.3/../../../../pic32mx/lib/liblega-c.a(fputc.o)
 .reginfo       0x00000000       0x18 /Applications/microchip/xc32/v2.50/bin/bin/../../lib/gcc/pic32mx/4.8.3/../../../../pic32mx/lib/liblega-c.a(fputc.o)
 .text.putc     0x00000000       0x1c /Applications/microchip/xc32/v2.50/bin/bin/../../lib/gcc/pic32mx/4.8.3/../../../../pic32mx/lib/liblega-c.a(fputc.o)
 .text.putchar  0x00000000       0x24 /Applications/microchip/xc32/v2.50/bin/bin/../../lib/gcc/pic32mx/4.8.3/../../../../pic32mx/lib/liblega-c.a(fputc.o)
 .text          0x00000000        0x0 /Applications/microchip/xc32/v2.50/bin/bin/../../lib/gcc/pic32mx/4.8.3/../../../../pic32mx/lib/liblega-c.a(fputs.o)
 .data          0x00000000        0x0 /Applications/microchip/xc32/v2.50/bin/bin/../../lib/gcc/pic32mx/4.8.3/../../../../pic32mx/lib/liblega-c.a(fputs.o)
 .bss           0x00000000        0x0 /Applications/microchip/xc32/v2.50/bin/bin/../../lib/gcc/pic32mx/4.8.3/../../../../pic32mx/lib/liblega-c.a(fputs.o)
 .reginfo       0x00000000       0x18 /Applications/microchip/xc32/v2.50/bin/bin/../../lib/gcc/pic32mx/4.8.3/../../../../pic32mx/lib/liblega-c.a(fputs.o)
 .text          0x00000000        0x0 /Applications/microchip/xc32/v2.50/bin/bin/../../lib/gcc/pic32mx/4.8.3/../../../../pic32mx/lib/liblega-c.a(printf_cdfFnopuxX.eo)
 .data          0x00000000        0x0 /Applications/microchip/xc32/v2.50/bin/bin/../../lib/gcc/pic32mx/4.8.3/../../../../pic32mx/lib/liblega-c.a(printf_cdfFnopuxX.eo)
 .bss           0x00000000        0x0 /Applications/microchip/xc32/v2.50/bin/bin/../../lib/gcc/pic32mx/4.8.3/../../../../pic32mx/lib/liblega-c.a(printf_cdfFnopuxX.eo)
 .reginfo       0x00000000       0x18 /Applications/microchip/xc32/v2.50/bin/bin/../../lib/gcc/pic32mx/4.8.3/../../../../pic32mx/lib/liblega-c.a(printf_cdfFnopuxX.eo)
 .text          0x00000000        0x0 /Applications/microchip/xc32/v2.50/bin/bin/../../lib/gcc/pic32mx/4.8.3/../../../../pic32mx/lib/liblega-c.a(strlen.o)
 .data          0x00000000        0x0 /Applications/microchip/xc32/v2.50/bin/bin/../../lib/gcc/pic32mx/4.8.3/../../../../pic32mx/lib/liblega-c.a(strlen.o)
 .bss           0x00000000        0x0 /Applications/microchip/xc32/v2.50/bin/bin/../../lib/gcc/pic32mx/4.8.3/../../../../pic32mx/lib/liblega-c.a(strlen.o)
 .reginfo       0x00000000       0x18 /Applications/microchip/xc32/v2.50/bin/bin/../../lib/gcc/pic32mx/4.8.3/../../../../pic32mx/lib/liblega-c.a(strlen.o)
 .text          0x00000000        0x0 /Applications/microchip/xc32/v2.50/bin/bin/../../lib/gcc/pic32mx/4.8.3/../../../../pic32mx/lib/liblega-c.a(_doprnt_cdfFnopuxX.eo)
 .data          0x00000000        0x0 /Applications/microchip/xc32/v2.50/bin/bin/../../lib/gcc/pic32mx/4.8.3/../../../../pic32mx/lib/liblega-c.a(_doprnt_cdfFnopuxX.eo)
 .bss           0x00000000        0x0 /Applications/microchip/xc32/v2.50/bin/bin/../../lib/gcc/pic32mx/4.8.3/../../../../pic32mx/lib/liblega-c.a(_doprnt_cdfFnopuxX.eo)
 .reginfo       0x00000000       0x18 /Applications/microchip/xc32/v2.50/bin/bin/../../lib/gcc/pic32mx/4.8.3/../../../../pic32mx/lib/liblega-c.a(_doprnt_cdfFnopuxX.eo)
 .text._vfprintf_cdfFnopuxX
                0x00000000       0x1c /Applications/microchip/xc32/v2.50/bin/bin/../../lib/gcc/pic32mx/4.8.3/../../../../pic32mx/lib/liblega-c.a(_doprnt_cdfFnopuxX.eo)
 .text._io_exit
                0x00000000       0x14 /Applications/microchip/xc32/v2.50/bin/bin/../../lib/gcc/pic32mx/4.8.3/../../../../pic32mx/lib/liblega-c.a(_doprnt_cdfFnopuxX.eo)
 .text          0x00000000        0x0 /Applications/microchip/xc32/v2.50/bin/bin/../../lib/gcc/pic32mx/4.8.3/../../../../pic32mx/lib/liblega-c.a(_iobdata.o)
 .reginfo       0x00000000       0x18 /Applications/microchip/xc32/v2.50/bin/bin/../../lib/gcc/pic32mx/4.8.3/../../../../pic32mx/lib/liblega-c.a(_iobdata.o)
 .text          0x00000000        0x0 /Applications/microchip/xc32/v2.50/bin/bin/../../lib/gcc/pic32mx/4.8.3/../../../../pic32mx/lib/liblega-c.a(_iobfuncs.o)
 .data          0x00000000        0x0 /Applications/microchip/xc32/v2.50/bin/bin/../../lib/gcc/pic32mx/4.8.3/../../../../pic32mx/lib/liblega-c.a(_iobfuncs.o)
 .bss           0x00000000        0x0 /Applications/microchip/xc32/v2.50/bin/bin/../../lib/gcc/pic32mx/4.8.3/../../../../pic32mx/lib/liblega-c.a(_iobfuncs.o)
 .reginfo       0x00000000       0x18 /Applications/microchip/xc32/v2.50/bin/bin/../../lib/gcc/pic32mx/4.8.3/../../../../pic32mx/lib/liblega-c.a(_iobfuncs.o)
 .text._io_exit
                0x00000000       0x14 /Applications/microchip/xc32/v2.50/bin/bin/../../lib/gcc/pic32mx/4.8.3/../../../../pic32mx/lib/liblega-c.a(_iobfuncs.o)
 .text          0x00000000        0x0 /Applications/microchip/xc32/v2.50/bin/bin/../../lib/gcc/pic32mx/4.8.3/../../../../pic32mx/lib/liblega-c.a(errno.o)
 .data          0x00000000        0x0 /Applications/microchip/xc32/v2.50/bin/bin/../../lib/gcc/pic32mx/4.8.3/../../../../pic32mx/lib/liblega-c.a(errno.o)
 .bss           0x00000000        0x0 /Applications/microchip/xc32/v2.50/bin/bin/../../lib/gcc/pic32mx/4.8.3/../../../../pic32mx/lib/liblega-c.a(errno.o)
 .reginfo       0x00000000       0x18 /Applications/microchip/xc32/v2.50/bin/bin/../../lib/gcc/pic32mx/4.8.3/../../../../pic32mx/lib/liblega-c.a(errno.o)
 .text          0x00000000        0x0 /Applications/microchip/xc32/v2.50/bin/bin/../../lib/gcc/pic32mx/4.8.3/../../../../pic32mx/lib/libm.a(dpmodf.o)
 .data          0x00000000        0x0 /Applications/microchip/xc32/v2.50/bin/bin/../../lib/gcc/pic32mx/4.8.3/../../../../pic32mx/lib/libm.a(dpmodf.o)
 .bss           0x00000000        0x0 /Applications/microchip/xc32/v2.50/bin/bin/../../lib/gcc/pic32mx/4.8.3/../../../../pic32mx/lib/libm.a(dpmodf.o)
 .reginfo       0x00000000       0x18 /Applications/microchip/xc32/v2.50/bin/bin/../../lib/gcc/pic32mx/4.8.3/../../../../pic32mx/lib/libm.a(dpmodf.o)
 .text          0x00000000        0x0 /Applications/microchip/xc32/v2.50/bin/bin/../../lib/gcc/pic32mx/4.8.3/../../../../pic32mx/lib/libm.a(cos32.o)
 .data          0x00000000        0x0 /Applications/microchip/xc32/v2.50/bin/bin/../../lib/gcc/pic32mx/4.8.3/../../../../pic32mx/lib/libm.a(cos32.o)
 .bss           0x00000000        0x0 /Applications/microchip/xc32/v2.50/bin/bin/../../lib/gcc/pic32mx/4.8.3/../../../../pic32mx/lib/libm.a(cos32.o)
 .reginfo       0x00000000       0x18 /Applications/microchip/xc32/v2.50/bin/bin/../../lib/gcc/pic32mx/4.8.3/../../../../pic32mx/lib/libm.a(cos32.o)
 .text          0x00000000        0x0 /Applications/microchip/xc32/v2.50/bin/bin/../../lib/gcc/pic32mx/4.8.3/../../../../pic32mx/lib/libm.a(dp32div.o)
 .data          0x00000000        0x0 /Applications/microchip/xc32/v2.50/bin/bin/../../lib/gcc/pic32mx/4.8.3/../../../../pic32mx/lib/libm.a(dp32div.o)
 .bss           0x00000000        0x0 /Applications/microchip/xc32/v2.50/bin/bin/../../lib/gcc/pic32mx/4.8.3/../../../../pic32mx/lib/libm.a(dp32div.o)
 .reginfo       0x00000000       0x18 /Applications/microchip/xc32/v2.50/bin/bin/../../lib/gcc/pic32mx/4.8.3/../../../../pic32mx/lib/libm.a(dp32div.o)
 .text          0x00000000        0x0 /Applications/microchip/xc32/v2.50/bin/bin/../../lib/gcc/pic32mx/4.8.3/../../../../pic32mx/lib/libm.a(dp32mul.o)
 .data          0x00000000        0x0 /Applications/microchip/xc32/v2.50/bin/bin/../../lib/gcc/pic32mx/4.8.3/../../../../pic32mx/lib/libm.a(dp32mul.o)
 .bss           0x00000000        0x0 /Applications/microchip/xc32/v2.50/bin/bin/../../lib/gcc/pic32mx/4.8.3/../../../../pic32mx/lib/libm.a(dp32mul.o)
 .reginfo       0x00000000       0x18 /Applications/microchip/xc32/v2.50/bin/bin/../../lib/gcc/pic32mx/4.8.3/../../../../pic32mx/lib/libm.a(dp32mul.o)
 .text          0x00000000        0x0 /Applications/microchip/xc32/v2.50/bin/bin/../../lib/gcc/pic32mx/4.8.3/../../../../pic32mx/lib/libm.a(dp32subadd.o)
 .data          0x00000000        0x0 /Applications/microchip/xc32/v2.50/bin/bin/../../lib/gcc/pic32mx/4.8.3/../../../../pic32mx/lib/libm.a(dp32subadd.o)
 .bss           0x00000000        0x0 /Applications/microchip/xc32/v2.50/bin/bin/../../lib/gcc/pic32mx/4.8.3/../../../../pic32mx/lib/libm.a(dp32subadd.o)
 .reginfo       0x00000000       0x18 /Applications/microchip/xc32/v2.50/bin/bin/../../lib/gcc/pic32mx/4.8.3/../../../../pic32mx/lib/libm.a(dp32subadd.o)
 .text          0x00000000        0x0 /Applications/microchip/xc32/v2.50/bin/bin/../../lib/gcc/pic32mx/4.8.3/../../../../pic32mx/lib/libm.a(dpcmp.o)
 .data          0x00000000        0x0 /Applications/microchip/xc32/v2.50/bin/bin/../../lib/gcc/pic32mx/4.8.3/../../../../pic32mx/lib/libm.a(dpcmp.o)
 .bss           0x00000000        0x0 /Applications/microchip/xc32/v2.50/bin/bin/../../lib/gcc/pic32mx/4.8.3/../../../../pic32mx/lib/libm.a(dpcmp.o)
 .reginfo       0x00000000       0x18 /Applications/microchip/xc32/v2.50/bin/bin/../../lib/gcc/pic32mx/4.8.3/../../../../pic32mx/lib/libm.a(dpcmp.o)
 .text          0x00000000        0x0 /Applications/microchip/xc32/v2.50/bin/bin/../../lib/gcc/pic32mx/4.8.3/../../../../pic32mx/lib/libm.a(dptofp.o)
 .data          0x00000000        0x0 /Applications/microchip/xc32/v2.50/bin/bin/../../lib/gcc/pic32mx/4.8.3/../../../../pic32mx/lib/libm.a(dptofp.o)
 .bss           0x00000000        0x0 /Applications/microchip/xc32/v2.50/bin/bin/../../lib/gcc/pic32mx/4.8.3/../../../../pic32mx/lib/libm.a(dptofp.o)
 .reginfo       0x00000000       0x18 /Applications/microchip/xc32/v2.50/bin/bin/../../lib/gcc/pic32mx/4.8.3/../../../../pic32mx/lib/libm.a(dptofp.o)
 .text          0x00000000        0x0 /Applications/microchip/xc32/v2.50/bin/bin/../../lib/gcc/pic32mx/4.8.3/../../../../pic32mx/lib/libm.a(dptoli.o)
 .data          0x00000000        0x0 /Applications/microchip/xc32/v2.50/bin/bin/../../lib/gcc/pic32mx/4.8.3/../../../../pic32mx/lib/libm.a(dptoli.o)
 .bss           0x00000000        0x0 /Applications/microchip/xc32/v2.50/bin/bin/../../lib/gcc/pic32mx/4.8.3/../../../../pic32mx/lib/libm.a(dptoli.o)
 .reginfo       0x00000000       0x18 /Applications/microchip/xc32/v2.50/bin/bin/../../lib/gcc/pic32mx/4.8.3/../../../../pic32mx/lib/libm.a(dptoli.o)
 .text          0x00000000        0x0 /Applications/microchip/xc32/v2.50/bin/bin/../../lib/gcc/pic32mx/4.8.3/../../../../pic32mx/lib/libm.a(exmul.o)
 .data          0x00000000        0x0 /Applications/microchip/xc32/v2.50/bin/bin/../../lib/gcc/pic32mx/4.8.3/../../../../pic32mx/lib/libm.a(exmul.o)
 .bss           0x00000000        0x0 /Applications/microchip/xc32/v2.50/bin/bin/../../lib/gcc/pic32mx/4.8.3/../../../../pic32mx/lib/libm.a(exmul.o)
 .reginfo       0x00000000       0x18 /Applications/microchip/xc32/v2.50/bin/bin/../../lib/gcc/pic32mx/4.8.3/../../../../pic32mx/lib/libm.a(exmul.o)
 .text          0x00000000        0x0 /Applications/microchip/xc32/v2.50/bin/bin/../../lib/gcc/pic32mx/4.8.3/../../../../pic32mx/lib/libm.a(fp32div.o)
 .data          0x00000000        0x0 /Applications/microchip/xc32/v2.50/bin/bin/../../lib/gcc/pic32mx/4.8.3/../../../../pic32mx/lib/libm.a(fp32div.o)
 .bss           0x00000000        0x0 /Applications/microchip/xc32/v2.50/bin/bin/../../lib/gcc/pic32mx/4.8.3/../../../../pic32mx/lib/libm.a(fp32div.o)
 .reginfo       0x00000000       0x18 /Applications/microchip/xc32/v2.50/bin/bin/../../lib/gcc/pic32mx/4.8.3/../../../../pic32mx/lib/libm.a(fp32div.o)
 .text          0x00000000        0x0 /Applications/microchip/xc32/v2.50/bin/bin/../../lib/gcc/pic32mx/4.8.3/../../../../pic32mx/lib/libm.a(fp32mul.o)
 .data          0x00000000        0x0 /Applications/microchip/xc32/v2.50/bin/bin/../../lib/gcc/pic32mx/4.8.3/../../../../pic32mx/lib/libm.a(fp32mul.o)
 .bss           0x00000000        0x0 /Applications/microchip/xc32/v2.50/bin/bin/../../lib/gcc/pic32mx/4.8.3/../../../../pic32mx/lib/libm.a(fp32mul.o)
 .reginfo       0x00000000       0x18 /Applications/microchip/xc32/v2.50/bin/bin/../../lib/gcc/pic32mx/4.8.3/../../../../pic32mx/lib/libm.a(fp32mul.o)
 .text          0x00000000        0x0 /Applications/microchip/xc32/v2.50/bin/bin/../../lib/gcc/pic32mx/4.8.3/../../../../pic32mx/lib/libm.a(fpcmp.o)
 .data          0x00000000        0x0 /Applications/microchip/xc32/v2.50/bin/bin/../../lib/gcc/pic32mx/4.8.3/../../../../pic32mx/lib/libm.a(fpcmp.o)
 .bss           0x00000000        0x0 /Applications/microchip/xc32/v2.50/bin/bin/../../lib/gcc/pic32mx/4.8.3/../../../../pic32mx/lib/libm.a(fpcmp.o)
 .reginfo       0x00000000       0x18 /Applications/microchip/xc32/v2.50/bin/bin/../../lib/gcc/pic32mx/4.8.3/../../../../pic32mx/lib/libm.a(fpcmp.o)
 .text          0x00000000        0x0 /Applications/microchip/xc32/v2.50/bin/bin/../../lib/gcc/pic32mx/4.8.3/../../../../pic32mx/lib/libm.a(fptodp.o)
 .data          0x00000000        0x0 /Applications/microchip/xc32/v2.50/bin/bin/../../lib/gcc/pic32mx/4.8.3/../../../../pic32mx/lib/libm.a(fptodp.o)
 .bss           0x00000000        0x0 /Applications/microchip/xc32/v2.50/bin/bin/../../lib/gcc/pic32mx/4.8.3/../../../../pic32mx/lib/libm.a(fptodp.o)
 .reginfo       0x00000000       0x18 /Applications/microchip/xc32/v2.50/bin/bin/../../lib/gcc/pic32mx/4.8.3/../../../../pic32mx/lib/libm.a(fptodp.o)
 .text          0x00000000        0x0 /Applications/microchip/xc32/v2.50/bin/bin/../../lib/gcc/pic32mx/4.8.3/../../../../pic32mx/lib/libm.a(fptoli.o)
 .data          0x00000000        0x0 /Applications/microchip/xc32/v2.50/bin/bin/../../lib/gcc/pic32mx/4.8.3/../../../../pic32mx/lib/libm.a(fptoli.o)
 .bss           0x00000000        0x0 /Applications/microchip/xc32/v2.50/bin/bin/../../lib/gcc/pic32mx/4.8.3/../../../../pic32mx/lib/libm.a(fptoli.o)
 .reginfo       0x00000000       0x18 /Applications/microchip/xc32/v2.50/bin/bin/../../lib/gcc/pic32mx/4.8.3/../../../../pic32mx/lib/libm.a(fptoli.o)
 .text          0x00000000        0x0 /Applications/microchip/xc32/v2.50/bin/bin/../../lib/gcc/pic32mx/4.8.3/../../../../pic32mx/lib/libm.a(fptoul.o)
 .data          0x00000000        0x0 /Applications/microchip/xc32/v2.50/bin/bin/../../lib/gcc/pic32mx/4.8.3/../../../../pic32mx/lib/libm.a(fptoul.o)
 .bss           0x00000000        0x0 /Applications/microchip/xc32/v2.50/bin/bin/../../lib/gcc/pic32mx/4.8.3/../../../../pic32mx/lib/libm.a(fptoul.o)
 .reginfo       0x00000000       0x18 /Applications/microchip/xc32/v2.50/bin/bin/../../lib/gcc/pic32mx/4.8.3/../../../../pic32mx/lib/libm.a(fptoul.o)
 .text          0x00000000        0x0 /Applications/microchip/xc32/v2.50/bin/bin/../../lib/gcc/pic32mx/4.8.3/../../../../pic32mx/lib/libm.a(litodp.o)
 .data          0x00000000        0x0 /Applications/microchip/xc32/v2.50/bin/bin/../../lib/gcc/pic32mx/4.8.3/../../../../pic32mx/lib/libm.a(litodp.o)
 .bss           0x00000000        0x0 /Applications/microchip/xc32/v2.50/bin/bin/../../lib/gcc/pic32mx/4.8.3/../../../../pic32mx/lib/libm.a(litodp.o)
 .reginfo       0x00000000       0x18 /Applications/microchip/xc32/v2.50/bin/bin/../../lib/gcc/pic32mx/4.8.3/../../../../pic32mx/lib/libm.a(litodp.o)
 .text          0x00000000        0x0 /Applications/microchip/xc32/v2.50/bin/bin/../../lib/gcc/pic32mx/4.8.3/../../../../pic32mx/lib/libm.a(reduct32.o)
 .data          0x00000000        0x0 /Applications/microchip/xc32/v2.50/bin/bin/../../lib/gcc/pic32mx/4.8.3/../../../../pic32mx/lib/libm.a(reduct32.o)
 .bss           0x00000000        0x0 /Applications/microchip/xc32/v2.50/bin/bin/../../lib/gcc/pic32mx/4.8.3/../../../../pic32mx/lib/libm.a(reduct32.o)
 .reginfo       0x00000000       0x18 /Applications/microchip/xc32/v2.50/bin/bin/../../lib/gcc/pic32mx/4.8.3/../../../../pic32mx/lib/libm.a(reduct32.o)
 .text          0x00000000        0x0 /Applications/microchip/xc32/v2.50/bin/bin/../../lib/gcc/pic32mx/4.8.3/../../../../pic32mx/lib/libm.a(sigmax.o)
 .data          0x00000000        0x0 /Applications/microchip/xc32/v2.50/bin/bin/../../lib/gcc/pic32mx/4.8.3/../../../../pic32mx/lib/libm.a(sigmax.o)
 .bss           0x00000000        0x0 /Applications/microchip/xc32/v2.50/bin/bin/../../lib/gcc/pic32mx/4.8.3/../../../../pic32mx/lib/libm.a(sigmax.o)
 .reginfo       0x00000000       0x18 /Applications/microchip/xc32/v2.50/bin/bin/../../lib/gcc/pic32mx/4.8.3/../../../../pic32mx/lib/libm.a(sigmax.o)
 .data          0x00000000        0x0 /Applications/microchip/xc32/v2.50/bin/bin/../../lib/gcc/pic32mx/4.8.3/../../../../pic32mx/lib/libm.a(sin32.o)
 .bss           0x00000000        0x0 /Applications/microchip/xc32/v2.50/bin/bin/../../lib/gcc/pic32mx/4.8.3/../../../../pic32mx/lib/libm.a(sin32.o)
 .reginfo       0x00000000       0x18 /Applications/microchip/xc32/v2.50/bin/bin/../../lib/gcc/pic32mx/4.8.3/../../../../pic32mx/lib/libm.a(sin32.o)
 .text.libm     0x00000000        0x0 /Applications/microchip/xc32/v2.50/bin/bin/../../lib/gcc/pic32mx/4.8.3/../../../../pic32mx/lib/libm.a(sin32.o)
 .text          0x00000000        0x0 /Applications/microchip/xc32/v2.50/bin/bin/../../lib/gcc/pic32mx/4.8.3/../../../../pic32mx/lib/libm.a(sincos32.o)
 .bss           0x00000000        0x0 /Applications/microchip/xc32/v2.50/bin/bin/../../lib/gcc/pic32mx/4.8.3/../../../../pic32mx/lib/libm.a(sincos32.o)
 .reginfo       0x00000000       0x18 /Applications/microchip/xc32/v2.50/bin/bin/../../lib/gcc/pic32mx/4.8.3/../../../../pic32mx/lib/libm.a(sincos32.o)
 .text          0x00000000        0x0 /Applications/microchip/xc32/v2.50/bin/bin/../../lib/gcc/pic32mx/4.8.3/../../../../pic32mx/lib/libm.a(sitofp.o)
 .data          0x00000000        0x0 /Applications/microchip/xc32/v2.50/bin/bin/../../lib/gcc/pic32mx/4.8.3/../../../../pic32mx/lib/libm.a(sitofp.o)
 .bss           0x00000000        0x0 /Applications/microchip/xc32/v2.50/bin/bin/../../lib/gcc/pic32mx/4.8.3/../../../../pic32mx/lib/libm.a(sitofp.o)
 .reginfo       0x00000000       0x18 /Applications/microchip/xc32/v2.50/bin/bin/../../lib/gcc/pic32mx/4.8.3/../../../../pic32mx/lib/libm.a(sitofp.o)
 .text          0x00000000        0x0 /Applications/microchip/xc32/v2.50/bin/bin/../../lib/gcc/pic32mx/4.8.3/../../../../pic32mx/lib/libm.a(w_sqrt.o)
 .data          0x00000000        0x0 /Applications/microchip/xc32/v2.50/bin/bin/../../lib/gcc/pic32mx/4.8.3/../../../../pic32mx/lib/libm.a(w_sqrt.o)
 .bss           0x00000000        0x0 /Applications/microchip/xc32/v2.50/bin/bin/../../lib/gcc/pic32mx/4.8.3/../../../../pic32mx/lib/libm.a(w_sqrt.o)
 .reginfo       0x00000000       0x18 /Applications/microchip/xc32/v2.50/bin/bin/../../lib/gcc/pic32mx/4.8.3/../../../../pic32mx/lib/libm.a(w_sqrt.o)
 .text          0x00000000        0x0 /Applications/microchip/xc32/v2.50/bin/bin/../../lib/gcc/pic32mx/4.8.3/../../../../pic32mx/lib/libm.a(dpsqrt.o)
 .data          0x00000000        0x0 /Applications/microchip/xc32/v2.50/bin/bin/../../lib/gcc/pic32mx/4.8.3/../../../../pic32mx/lib/libm.a(dpsqrt.o)
 .bss           0x00000000        0x0 /Applications/microchip/xc32/v2.50/bin/bin/../../lib/gcc/pic32mx/4.8.3/../../../../pic32mx/lib/libm.a(dpsqrt.o)
 .reginfo       0x00000000       0x18 /Applications/microchip/xc32/v2.50/bin/bin/../../lib/gcc/pic32mx/4.8.3/../../../../pic32mx/lib/libm.a(dpsqrt.o)
 .text          0x00000000        0x0 /Applications/microchip/xc32/v2.50/bin/bin/../../lib/gcc/pic32mx/4.8.3/../../../../pic32mx/lib/libm.a(exsqrt.o)
 .data          0x00000000        0x0 /Applications/microchip/xc32/v2.50/bin/bin/../../lib/gcc/pic32mx/4.8.3/../../../../pic32mx/lib/libm.a(exsqrt.o)
 .bss           0x00000000        0x0 /Applications/microchip/xc32/v2.50/bin/bin/../../lib/gcc/pic32mx/4.8.3/../../../../pic32mx/lib/libm.a(exsqrt.o)
 .reginfo       0x00000000       0x18 /Applications/microchip/xc32/v2.50/bin/bin/../../lib/gcc/pic32mx/4.8.3/../../../../pic32mx/lib/libm.a(exsqrt.o)
 .text.libm.fpexsqrt
                0x00000000        0x0 /Applications/microchip/xc32/v2.50/bin/bin/../../lib/gcc/pic32mx/4.8.3/../../../../pic32mx/lib/libm.a(exsqrt.o)
 .text          0x00000000        0x0 /Applications/microchip/xc32/v2.50/bin/bin/../../lib/gcc/pic32mx/4.8.3/../../../../pic32mx/lib/libm.a(fpexsqrt32.o)
 .data          0x00000000        0x0 /Applications/microchip/xc32/v2.50/bin/bin/../../lib/gcc/pic32mx/4.8.3/../../../../pic32mx/lib/libm.a(fpexsqrt32.o)
 .bss           0x00000000        0x0 /Applications/microchip/xc32/v2.50/bin/bin/../../lib/gcc/pic32mx/4.8.3/../../../../pic32mx/lib/libm.a(fpexsqrt32.o)
 .reginfo       0x00000000       0x18 /Applications/microchip/xc32/v2.50/bin/bin/../../lib/gcc/pic32mx/4.8.3/../../../../pic32mx/lib/libm.a(fpexsqrt32.o)
 .text.libm.fpexsqrt
                0x00000000       0xfc /Applications/microchip/xc32/v2.50/bin/bin/../../lib/gcc/pic32mx/4.8.3/../../../../pic32mx/lib/libm.a(fpexsqrt32.o)
 .text          0x00000000        0x0 /Applications/microchip/xc32/v2.50/bin/bin/../../lib/gcc/pic32mx/4.8.3/../../../../pic32mx/lib/libm.a(s_lib_ver.o)
 .data          0x00000000        0x0 /Applications/microchip/xc32/v2.50/bin/bin/../../lib/gcc/pic32mx/4.8.3/../../../../pic32mx/lib/libm.a(s_lib_ver.o)
 .bss           0x00000000        0x0 /Applications/microchip/xc32/v2.50/bin/bin/../../lib/gcc/pic32mx/4.8.3/../../../../pic32mx/lib/libm.a(s_lib_ver.o)
 .reginfo       0x00000000       0x18 /Applications/microchip/xc32/v2.50/bin/bin/../../lib/gcc/pic32mx/4.8.3/../../../../pic32mx/lib/libm.a(s_lib_ver.o)
 .data          0x00000000        0x0 /Applications/microchip/xc32/v2.50/bin/bin/../../lib/gcc/pic32mx/4.8.3/libgcc.a(_udivdi3.o)
 .bss           0x00000000        0x0 /Applications/microchip/xc32/v2.50/bin/bin/../../lib/gcc/pic32mx/4.8.3/libgcc.a(_udivdi3.o)
 .reginfo       0x00000000       0x18 /Applications/microchip/xc32/v2.50/bin/bin/../../lib/gcc/pic32mx/4.8.3/libgcc.a(_udivdi3.o)
 .data          0x00000000        0x0 /Applications/microchip/xc32/v2.50/bin/bin/../../lib/gcc/pic32mx/4.8.3/libgcc.a(_umoddi3.o)
 .bss           0x00000000        0x0 /Applications/microchip/xc32/v2.50/bin/bin/../../lib/gcc/pic32mx/4.8.3/libgcc.a(_umoddi3.o)
 .reginfo       0x00000000       0x18 /Applications/microchip/xc32/v2.50/bin/bin/../../lib/gcc/pic32mx/4.8.3/libgcc.a(_umoddi3.o)
 .text          0x00000000        0x0 /Applications/microchip/xc32/v2.50/bin/bin/../../lib/gcc/pic32mx/4.8.3/../../../../pic32mx/lib/libpic32.a(_mon_getc.o)
 .data          0x00000000        0x0 /Applications/microchip/xc32/v2.50/bin/bin/../../lib/gcc/pic32mx/4.8.3/../../../../pic32mx/lib/libpic32.a(_mon_getc.o)
 .bss           0x00000000        0x0 /Applications/microchip/xc32/v2.50/bin/bin/../../lib/gcc/pic32mx/4.8.3/../../../../pic32mx/lib/libpic32.a(_mon_getc.o)
 .reginfo       0x00000000       0x18 /Applications/microchip/xc32/v2.50/bin/bin/../../lib/gcc/pic32mx/4.8.3/../../../../pic32mx/lib/libpic32.a(_mon_getc.o)
 .text          0x00000000        0x0 /Applications/microchip/xc32/v2.50/bin/bin/../../lib/gcc/pic32mx/4.8.3/../../../../pic32mx/lib/libpic32.a(_mon_write.o)
 .data          0x00000000        0x0 /Applications/microchip/xc32/v2.50/bin/bin/../../lib/gcc/pic32mx/4.8.3/../../../../pic32mx/lib/libpic32.a(_mon_write.o)
 .bss           0x00000000        0x0 /Applications/microchip/xc32/v2.50/bin/bin/../../lib/gcc/pic32mx/4.8.3/../../../../pic32mx/lib/libpic32.a(_mon_write.o)
 .reginfo       0x00000000       0x18 /Applications/microchip/xc32/v2.50/bin/bin/../../lib/gcc/pic32mx/4.8.3/../../../../pic32mx/lib/libpic32.a(_mon_write.o)
 .text          0x00000000        0x0 /Applications/microchip/xc32/v2.50/bin/bin/../../lib/gcc/pic32mx/4.8.3/../../../../pic32mx/lib/libpic32.a(_mon_putc.o)
 .data          0x00000000        0x0 /Applications/microchip/xc32/v2.50/bin/bin/../../lib/gcc/pic32mx/4.8.3/../../../../pic32mx/lib/libpic32.a(_mon_putc.o)
 .bss           0x00000000        0x0 /Applications/microchip/xc32/v2.50/bin/bin/../../lib/gcc/pic32mx/4.8.3/../../../../pic32mx/lib/libpic32.a(_mon_putc.o)
 .reginfo       0x00000000       0x18 /Applications/microchip/xc32/v2.50/bin/bin/../../lib/gcc/pic32mx/4.8.3/../../../../pic32mx/lib/libpic32.a(_mon_putc.o)

Memory Configuration

Name             Origin             Length             Attributes
kseg0_program_mem 0x9d000000         0x0003f000         xr
exception_mem    0x9d03f000         0x00001000
debug_exec_mem   0x9fc00490         0x00000760
kseg0_boot_mem   0x9fc00490         0x00000000
kseg1_boot_mem   0xbfc00000         0x00000490
config3          0xbfc00bf0         0x00000004
config2          0xbfc00bf4         0x00000004
config1          0xbfc00bf8         0x00000004
config0          0xbfc00bfc         0x00000004
kseg1_data_mem   0xa0000000         0x00010000         w !x
sfrs             0xbf800000         0x00100000
configsfrs       0xbfc00bf0         0x00000010
*default*        0x00000000         0xffffffff

Linker script and memory map

LOAD /Applications/microchip/xc32/v2.50/bin/bin/../../lib/gcc/pic32mx/4.8.3/../../../../pic32mx/lib/debug-exception-return.o
LOAD build/FrameworkWith_u8g2/production/FrameworkSource/ES_Port.o
LOAD build/FrameworkWith_u8g2/production/FrameworkSource/ES_Timers.o
LOAD build/FrameworkWith_u8g2/production/FrameworkSource/ES_LookupTables.o
LOAD build/FrameworkWith_u8g2/production/FrameworkSource/ES_CheckEvents.o
LOAD build/FrameworkWith_u8g2/production/FrameworkSource/ES_DeferRecall.o
LOAD build/FrameworkWith_u8g2/production/FrameworkSource/ES_Framework.o
LOAD build/FrameworkWith_u8g2/production/FrameworkSource/ES_Queue.o
LOAD build/FrameworkWith_u8g2/production/FrameworkSource/ES_PostList.o
LOAD build/FrameworkWith_u8g2/production/FrameworkSource/terminal.o
LOAD build/FrameworkWith_u8g2/production/ProjectSource/main.o
LOAD build/FrameworkWith_u8g2/production/ProjectSource/EventCheckers.o
LOAD build/FrameworkWith_u8g2/production/ProjectSource/dbprintf.o
LOAD build/FrameworkWith_u8g2/production/ProjectSource/pinsHAL.o
LOAD build/FrameworkWith_u8g2/production/ProjectSource/PIC32_AD_Lib.o
LOAD build/FrameworkWith_u8g2/production/ProjectSource/joystickHelpers.o
LOAD build/FrameworkWith_u8g2/production/ProjectSource/spiHAL.o
LOAD build/FrameworkWith_u8g2/production/ProjectSource/OLEDService.o
LOAD build/FrameworkWith_u8g2/production/ProjectSource/Comms.o
LOAD build/FrameworkWith_u8g2/production/ProjectSource/CommsRx.o
LOAD build/FrameworkWith_u8g2/production/ProjectSource/CommsTx.o
LOAD build/FrameworkWith_u8g2/production/ProjectSource/OPAMP.o
LOAD build/FrameworkWith_u8g2/production/ProjectSource/PackDataHandler.o
LOAD build/FrameworkWith_u8g2/production/ProjectSource/TVS.o
LOAD build/FrameworkWith_u8g2/production/ProjectSource/ZENER.o
LOAD build/FrameworkWith_u8g2/production/u8g2/spi_master.o
LOAD build/FrameworkWith_u8g2/production/u8g2/u8g2_bitmap.o
LOAD build/FrameworkWith_u8g2/production/u8g2/u8g2_box.o
LOAD build/FrameworkWith_u8g2/production/u8g2/u8g2_buffer.o
LOAD build/FrameworkWith_u8g2/production/u8g2/u8g2_circle.o
LOAD build/FrameworkWith_u8g2/production/u8g2/u8g2_cleardisplay.o
LOAD build/FrameworkWith_u8g2/production/u8g2/u8g2_d_memory.o
LOAD build/FrameworkWith_u8g2/production/u8g2/u8g2_d_setup.o
LOAD build/FrameworkWith_u8g2/production/u8g2/u8g2_font.o
LOAD build/FrameworkWith_u8g2/production/u8g2/u8g2_fonts.o
LOAD build/FrameworkWith_u8g2/production/u8g2/u8g2_hvline.o
LOAD build/FrameworkWith_u8g2/production/u8g2/u8g2_input_value.o
LOAD build/FrameworkWith_u8g2/production/u8g2/u8g2_intersection.o
LOAD build/FrameworkWith_u8g2/production/u8g2/u8g2_kerning.o
LOAD build/FrameworkWith_u8g2/production/u8g2/u8g2_line.o
LOAD build/FrameworkWith_u8g2/production/u8g2/u8g2_ll_hvline.o
LOAD build/FrameworkWith_u8g2/production/u8g2/u8g2_message.o
LOAD build/FrameworkWith_u8g2/production/u8g2/u8g2_pic32mz.o
LOAD build/FrameworkWith_u8g2/production/u8g2/u8g2_polygon.o
LOAD build/FrameworkWith_u8g2/production/u8g2/u8g2_selection_list.o
LOAD build/FrameworkWith_u8g2/production/u8g2/u8g2_setup.o
LOAD build/FrameworkWith_u8g2/production/u8g2/u8log.o
LOAD build/FrameworkWith_u8g2/production/u8g2/u8log_u8g2.o
LOAD build/FrameworkWith_u8g2/production/u8g2/u8log_u8x8.o
LOAD build/FrameworkWith_u8g2/production/u8g2/u8x8_8x8.o
LOAD build/FrameworkWith_u8g2/production/u8g2/u8x8_byte.o
LOAD build/FrameworkWith_u8g2/production/u8g2/u8x8_cad.o
LOAD build/FrameworkWith_u8g2/production/u8g2/u8x8_d_ssd1306_128x64_noname.o
LOAD build/FrameworkWith_u8g2/production/u8g2/u8x8_debounce.o
LOAD build/FrameworkWith_u8g2/production/u8g2/u8x8_display.o
LOAD build/FrameworkWith_u8g2/production/u8g2/u8x8_fonts.o
LOAD build/FrameworkWith_u8g2/production/u8g2/u8x8_gpio.o
LOAD build/FrameworkWith_u8g2/production/u8g2/u8x8_input_value.o
LOAD build/FrameworkWith_u8g2/production/u8g2/u8x8_message.o
LOAD build/FrameworkWith_u8g2/production/u8g2/u8x8_selection_list.o
LOAD build/FrameworkWith_u8g2/production/u8g2/u8x8_setup.o
LOAD build/FrameworkWith_u8g2/production/u8g2/u8x8_string.o
LOAD build/FrameworkWith_u8g2/production/u8g2/u8x8_u16toa.o
LOAD build/FrameworkWith_u8g2/production/u8g2/u8x8_u8toa.o
                0x00000001                __MPLAB_BUILD = 0x1
LOAD /var/folders/0c/nzpv5tdd6fd7x9vsgqwt8kmc0000gn/T//ccdT9R1U.o
LOAD /var/folders/0c/nzpv5tdd6fd7x9vsgqwt8kmc0000gn/T//cc9yBjCJ.o
LOAD /var/folders/0c/nzpv5tdd6fd7x9vsgqwt8kmc0000gn/T//cc4RWdc2.o
LOAD /Applications/microchip/xc32/v2.50/bin/bin/../../lib/gcc/pic32mx/4.8.3/../../../../pic32mx/lib/pic32_software_reset.o
                0x00000400                PROVIDE (_min_stack_size, 0x400)
START GROUP
LOAD /Applications/microchip/xc32/v2.50/bin/bin/../../lib/gcc/pic32mx/4.8.3/../../../../pic32mx/lib/./proc/32MX170F256B/processor.o
END GROUP
START GROUP
LOAD libmchp_peripheral.a
END GROUP
START GROUP
LOAD libmchp_peripheral_32MX170F256B.a
END GROUP
                0x00000001                PROVIDE (_vector_spacing, 0x1)
                0x9d03f000                PROVIDE (_ebase_address, 0x9d03f000)
                0xbfc00000                _RESET_ADDR = 0xbfc00000
                0xbfc00380                _BEV_EXCPT_ADDR = 0xbfc00380
                0xbfc00480                _DBG_EXCPT_ADDR = 0xbfc00480
                0x9fc00490                _DBG_CODE_ADDR = 0x9fc00490
                0x00000760                _DBG_CODE_SIZE = 0x760
                0x9d03f180                _GEN_EXCPT_ADDR = (_ebase_address + 0x180)

.config_BFC00BF0
                0xbfc00bf0        0x4
 *(.config_BFC00BF0)
 .config_BFC00BF0
                0xbfc00bf0        0x4 build/FrameworkWith_u8g2/production/FrameworkSource/ES_Port.o

.config_BFC00BF4
                0xbfc00bf4        0x4
 *(.config_BFC00BF4)
 .config_BFC00BF4
                0xbfc00bf4        0x4 build/FrameworkWith_u8g2/production/FrameworkSource/ES_Port.o

.config_BFC00BF8
                0xbfc00bf8        0x4
 *(.config_BFC00BF8)
 .config_BFC00BF8
                0xbfc00bf8        0x4 build/FrameworkWith_u8g2/production/FrameworkSource/ES_Port.o

.config_BFC00BFC
                0xbfc00bfc        0x4
 *(.config_BFC00BFC)
 .config_BFC00BFC
                0xbfc00bfc        0x4 build/FrameworkWith_u8g2/production/FrameworkSource/ES_Port.o
                0xbfc02000                PROVIDE (_DBG_CODE_ADDR, 0xbfc02000)
                0x00000ff0                PROVIDE (_DBG_CODE_SIZE, 0xff0)

.reset          0xbfc00000      0x178
 *(.reset)
 .reset         0xbfc00000        0x8 /var/folders/0c/nzpv5tdd6fd7x9vsgqwt8kmc0000gn/T//ccdT9R1U.o
                0xbfc00000                _reset
 *(.reset.startup)
 .reset.startup
                0xbfc00008      0x170 /var/folders/0c/nzpv5tdd6fd7x9vsgqwt8kmc0000gn/T//ccdT9R1U.o
                0xbfc00008                _startup

.bev_excpt      0xbfc00380       0x10
 *(.bev_handler)
 .bev_handler   0xbfc00380       0x10 /var/folders/0c/nzpv5tdd6fd7x9vsgqwt8kmc0000gn/T//ccdT9R1U.o

.dbg_excpt      0xbfc00480        0x0
                0xbfc00480                . = (. + DEFINED (_DEBUGGER)?0x8:0x0)

.dbg_code       0x9fc00490        0x0
                0x9fc00490                . = (. + DEFINED (_DEBUGGER)?_DBG_CODE_SIZE:0x0)

.app_excpt      0x9d03f180       0x10
 *(.gen_handler)
 .gen_handler   0x9d03f180       0x10 /var/folders/0c/nzpv5tdd6fd7x9vsgqwt8kmc0000gn/T//ccdT9R1U.o

.vector_0       0x9d03f200        0x8
 *(.vector_0)
 .vector_0      0x9d03f200        0x8 build/FrameworkWith_u8g2/production/FrameworkSource/ES_Port.o
                0x9d03f200                __vector_dispatch_0
                0x00000001                ASSERT (((_vector_spacing == 0x0) || (SIZEOF (.vector_0) <= (_vector_spacing << 0x5))), function at exception vector 0 too large)

.vector_1       0x9d03f220        0x8
 *(.vector_1)
 .vector_1      0x9d03f220        0x8 /Applications/microchip/xc32/v2.50/bin/bin/../../lib/gcc/pic32mx/4.8.3/../../../../pic32mx/lib/libpic32.a(vector1.o)
                0x9d03f220                __vector_dispatch_1
                0x00000001                ASSERT (((_vector_spacing == 0x0) || (SIZEOF (.vector_1) <= (_vector_spacing << 0x5))), function at exception vector 1 too large)

.vector_2       0x9d03f240        0x8
 *(.vector_2)
 .vector_2      0x9d03f240        0x8 /Applications/microchip/xc32/v2.50/bin/bin/../../lib/gcc/pic32mx/4.8.3/../../../../pic32mx/lib/libpic32.a(vector2.o)
                0x9d03f240                __vector_dispatch_2
                0x00000001                ASSERT (((_vector_spacing == 0x0) || (SIZEOF (.vector_2) <= (_vector_spacing << 0x5))), function at exception vector 2 too large)

.vector_3       0x9d03f260        0x8
 *(.vector_3)
 .vector_3      0x9d03f260        0x8 /Applications/microchip/xc32/v2.50/bin/bin/../../lib/gcc/pic32mx/4.8.3/../../../../pic32mx/lib/libpic32.a(vector3.o)
                0x9d03f260                __vector_dispatch_3
                0x00000001                ASSERT (((_vector_spacing == 0x0) || (SIZEOF (.vector_3) <= (_vector_spacing << 0x5))), function at exception vector 3 too large)

.vector_4       0x9d03f280        0x8
 *(.vector_4)
 .vector_4      0x9d03f280        0x8 /Applications/microchip/xc32/v2.50/bin/bin/../../lib/gcc/pic32mx/4.8.3/../../../../pic32mx/lib/libpic32.a(vector4.o)
                0x9d03f280                __vector_dispatch_4
                0x00000001                ASSERT (((_vector_spacing == 0x0) || (SIZEOF (.vector_4) <= (_vector_spacing << 0x5))), function at exception vector 4 too large)

.vector_5       0x9d03f2a0        0x8
 *(.vector_5)
 .vector_5      0x9d03f2a0        0x8 /Applications/microchip/xc32/v2.50/bin/bin/../../lib/gcc/pic32mx/4.8.3/../../../../pic32mx/lib/libpic32.a(vector5.o)
                0x9d03f2a0                __vector_dispatch_5
                0x00000001                ASSERT (((_vector_spacing == 0x0) || (SIZEOF (.vector_5) <= (_vector_spacing << 0x5))), function at exception vector 5 too large)

.vector_6       0x9d03f2c0        0x8
 *(.vector_6)
 .vector_6      0x9d03f2c0        0x8 /Applications/microchip/xc32/v2.50/bin/bin/../../lib/gcc/pic32mx/4.8.3/../../../../pic32mx/lib/libpic32.a(vector6.o)
                0x9d03f2c0                __vector_dispatch_6
                0x00000001                ASSERT (((_vector_spacing == 0x0) || (SIZEOF (.vector_6) <= (_vector_spacing << 0x5))), function at exception vector 6 too large)

.vector_7       0x9d03f2e0        0x8
 *(.vector_7)
 .vector_7      0x9d03f2e0        0x8 /Applications/microchip/xc32/v2.50/bin/bin/../../lib/gcc/pic32mx/4.8.3/../../../../pic32mx/lib/libpic32.a(vector7.o)
                0x9d03f2e0                __vector_dispatch_7
                0x00000001                ASSERT (((_vector_spacing == 0x0) || (SIZEOF (.vector_7) <= (_vector_spacing << 0x5))), function at exception vector 7 too large)

.vector_8       0x9d03f300        0x8
 *(.vector_8)
 .vector_8      0x9d03f300        0x8 build/FrameworkWith_u8g2/production/ProjectSource/Comms.o
                0x9d03f300                __vector_dispatch_8
                0x00000001                ASSERT (((_vector_spacing == 0x0) || (SIZEOF (.vector_8) <= (_vector_spacing << 0x5))), function at exception vector 8 too large)

.vector_9       0x9d03f320        0x8
 *(.vector_9)
 .vector_9      0x9d03f320        0x8 /Applications/microchip/xc32/v2.50/bin/bin/../../lib/gcc/pic32mx/4.8.3/../../../../pic32mx/lib/libpic32.a(vector9.o)
                0x9d03f320                __vector_dispatch_9
                0x00000001                ASSERT (((_vector_spacing == 0x0) || (SIZEOF (.vector_9) <= (_vector_spacing << 0x5))), function at exception vector 9 too large)

.vector_10      0x9d03f340        0x8
 *(.vector_10)
 .vector_10     0x9d03f340        0x8 /Applications/microchip/xc32/v2.50/bin/bin/../../lib/gcc/pic32mx/4.8.3/../../../../pic32mx/lib/libpic32.a(vector10.o)
                0x9d03f340                __vector_dispatch_10
                0x00000001                ASSERT (((_vector_spacing == 0x0) || (SIZEOF (.vector_10) <= (_vector_spacing << 0x5))), function at exception vector 10 too large)

.vector_11      0x9d03f360        0x8
 *(.vector_11)
 .vector_11     0x9d03f360        0x8 /Applications/microchip/xc32/v2.50/bin/bin/../../lib/gcc/pic32mx/4.8.3/../../../../pic32mx/lib/libpic32.a(vector11.o)
                0x9d03f360                __vector_dispatch_11
                0x00000001                ASSERT (((_vector_spacing == 0x0) || (SIZEOF (.vector_11) <= (_vector_spacing << 0x5))), function at exception vector 11 too large)

.vector_12      0x9d03f380        0x8
 *(.vector_12)
 .vector_12     0x9d03f380        0x8 /Applications/microchip/xc32/v2.50/bin/bin/../../lib/gcc/pic32mx/4.8.3/../../../../pic32mx/lib/libpic32.a(vector12.o)
                0x9d03f380                __vector_dispatch_12
                0x00000001                ASSERT (((_vector_spacing == 0x0) || (SIZEOF (.vector_12) <= (_vector_spacing << 0x5))), function at exception vector 12 too large)

.vector_13      0x9d03f3a0        0x8
 *(.vector_13)
 .vector_13     0x9d03f3a0        0x8 /Applications/microchip/xc32/v2.50/bin/bin/../../lib/gcc/pic32mx/4.8.3/../../../../pic32mx/lib/libpic32.a(vector13.o)
                0x9d03f3a0                __vector_dispatch_13
                0x00000001                ASSERT (((_vector_spacing == 0x0) || (SIZEOF (.vector_13) <= (_vector_spacing << 0x5))), function at exception vector 13 too large)

.vector_14      0x9d03f3c0        0x8
 *(.vector_14)
 .vector_14     0x9d03f3c0        0x8 /Applications/microchip/xc32/v2.50/bin/bin/../../lib/gcc/pic32mx/4.8.3/../../../../pic32mx/lib/libpic32.a(vector14.o)
                0x9d03f3c0                __vector_dispatch_14
                0x00000001                ASSERT (((_vector_spacing == 0x0) || (SIZEOF (.vector_14) <= (_vector_spacing << 0x5))), function at exception vector 14 too large)

.vector_15      0x9d03f3e0        0x8
 *(.vector_15)
 .vector_15     0x9d03f3e0        0x8 /Applications/microchip/xc32/v2.50/bin/bin/../../lib/gcc/pic32mx/4.8.3/../../../../pic32mx/lib/libpic32.a(vector15.o)
                0x9d03f3e0                __vector_dispatch_15
                0x00000001                ASSERT (((_vector_spacing == 0x0) || (SIZEOF (.vector_15) <= (_vector_spacing << 0x5))), function at exception vector 15 too large)

.vector_16      0x9d03f400        0x8
 *(.vector_16)
 .vector_16     0x9d03f400        0x8 /Applications/microchip/xc32/v2.50/bin/bin/../../lib/gcc/pic32mx/4.8.3/../../../../pic32mx/lib/libpic32.a(vector16.o)
                0x9d03f400                __vector_dispatch_16
                0x00000001                ASSERT (((_vector_spacing == 0x0) || (SIZEOF (.vector_16) <= (_vector_spacing << 0x5))), function at exception vector 16 too large)

.vector_17      0x9d03f420        0x8
 *(.vector_17)
 .vector_17     0x9d03f420        0x8 /Applications/microchip/xc32/v2.50/bin/bin/../../lib/gcc/pic32mx/4.8.3/../../../../pic32mx/lib/libpic32.a(vector17.o)
                0x9d03f420                __vector_dispatch_17
                0x00000001                ASSERT (((_vector_spacing == 0x0) || (SIZEOF (.vector_17) <= (_vector_spacing << 0x5))), function at exception vector 17 too large)

.vector_18      0x9d03f440        0x8
 *(.vector_18)
 .vector_18     0x9d03f440        0x8 /Applications/microchip/xc32/v2.50/bin/bin/../../lib/gcc/pic32mx/4.8.3/../../../../pic32mx/lib/libpic32.a(vector18.o)
                0x9d03f440                __vector_dispatch_18
                0x00000001                ASSERT (((_vector_spacing == 0x0) || (SIZEOF (.vector_18) <= (_vector_spacing << 0x5))), function at exception vector 18 too large)

.vector_19      0x9d03f460        0x8
 *(.vector_19)
 .vector_19     0x9d03f460        0x8 /Applications/microchip/xc32/v2.50/bin/bin/../../lib/gcc/pic32mx/4.8.3/../../../../pic32mx/lib/libpic32.a(vector19.o)
                0x9d03f460                __vector_dispatch_19
                0x00000001                ASSERT (((_vector_spacing == 0x0) || (SIZEOF (.vector_19) <= (_vector_spacing << 0x5))), function at exception vector 19 too large)

.vector_20      0x9d03f480        0x8
 *(.vector_20)
 .vector_20     0x9d03f480        0x8 /Applications/microchip/xc32/v2.50/bin/bin/../../lib/gcc/pic32mx/4.8.3/../../../../pic32mx/lib/libpic32.a(vector20.o)
                0x9d03f480                __vector_dispatch_20
                0x00000001                ASSERT (((_vector_spacing == 0x0) || (SIZEOF (.vector_20) <= (_vector_spacing << 0x5))), function at exception vector 20 too large)

.vector_21      0x9d03f4a0        0x8
 *(.vector_21)
 .vector_21     0x9d03f4a0        0x8 /Applications/microchip/xc32/v2.50/bin/bin/../../lib/gcc/pic32mx/4.8.3/../../../../pic32mx/lib/libpic32.a(vector21.o)
                0x9d03f4a0                __vector_dispatch_21
                0x00000001                ASSERT (((_vector_spacing == 0x0) || (SIZEOF (.vector_21) <= (_vector_spacing << 0x5))), function at exception vector 21 too large)

.vector_22      0x9d03f4c0        0x8
 *(.vector_22)
 .vector_22     0x9d03f4c0        0x8 /Applications/microchip/xc32/v2.50/bin/bin/../../lib/gcc/pic32mx/4.8.3/../../../../pic32mx/lib/libpic32.a(vector22.o)
                0x9d03f4c0                __vector_dispatch_22
                0x00000001                ASSERT (((_vector_spacing == 0x0) || (SIZEOF (.vector_22) <= (_vector_spacing << 0x5))), function at exception vector 22 too large)

.vector_23      0x9d03f4e0        0x8
 *(.vector_23)
 .vector_23     0x9d03f4e0        0x8 /Applications/microchip/xc32/v2.50/bin/bin/../../lib/gcc/pic32mx/4.8.3/../../../../pic32mx/lib/libpic32.a(vector23.o)
                0x9d03f4e0                __vector_dispatch_23
                0x00000001                ASSERT (((_vector_spacing == 0x0) || (SIZEOF (.vector_23) <= (_vector_spacing << 0x5))), function at exception vector 23 too large)

.vector_24      0x9d03f500        0x8
 *(.vector_24)
 .vector_24     0x9d03f500        0x8 /Applications/microchip/xc32/v2.50/bin/bin/../../lib/gcc/pic32mx/4.8.3/../../../../pic32mx/lib/libpic32.a(vector24.o)
                0x9d03f500                __vector_dispatch_24
                0x00000001                ASSERT (((_vector_spacing == 0x0) || (SIZEOF (.vector_24) <= (_vector_spacing << 0x5))), function at exception vector 24 too large)

.vector_25      0x9d03f520        0x8
 *(.vector_25)
 .vector_25     0x9d03f520        0x8 /Applications/microchip/xc32/v2.50/bin/bin/../../lib/gcc/pic32mx/4.8.3/../../../../pic32mx/lib/libpic32.a(vector25.o)
                0x9d03f520                __vector_dispatch_25
                0x00000001                ASSERT (((_vector_spacing == 0x0) || (SIZEOF (.vector_25) <= (_vector_spacing << 0x5))), function at exception vector 25 too large)

.vector_26      0x9d03f540        0x8
 *(.vector_26)
 .vector_26     0x9d03f540        0x8 /Applications/microchip/xc32/v2.50/bin/bin/../../lib/gcc/pic32mx/4.8.3/../../../../pic32mx/lib/libpic32.a(vector26.o)
                0x9d03f540                __vector_dispatch_26
                0x00000001                ASSERT (((_vector_spacing == 0x0) || (SIZEOF (.vector_26) <= (_vector_spacing << 0x5))), function at exception vector 26 too large)

.vector_27      0x9d03f560        0x8
 *(.vector_27)
 .vector_27     0x9d03f560        0x8 /Applications/microchip/xc32/v2.50/bin/bin/../../lib/gcc/pic32mx/4.8.3/../../../../pic32mx/lib/libpic32.a(vector27.o)
                0x9d03f560                __vector_dispatch_27
                0x00000001                ASSERT (((_vector_spacing == 0x0) || (SIZEOF (.vector_27) <= (_vector_spacing << 0x5))), function at exception vector 27 too large)

.vector_28      0x9d03f580        0x8
 *(.vector_28)
 .vector_28     0x9d03f580        0x8 /Applications/microchip/xc32/v2.50/bin/bin/../../lib/gcc/pic32mx/4.8.3/../../../../pic32mx/lib/libpic32.a(vector28.o)
                0x9d03f580                __vector_dispatch_28
                0x00000001                ASSERT (((_vector_spacing == 0x0) || (SIZEOF (.vector_28) <= (_vector_spacing << 0x5))), function at exception vector 28 too large)

.vector_29      0x9d03f5a0        0x8
 *(.vector_29)
 .vector_29     0x9d03f5a0        0x8 /Applications/microchip/xc32/v2.50/bin/bin/../../lib/gcc/pic32mx/4.8.3/../../../../pic32mx/lib/libpic32.a(vector29.o)
                0x9d03f5a0                __vector_dispatch_29
                0x00000001                ASSERT (((_vector_spacing == 0x0) || (SIZEOF (.vector_29) <= (_vector_spacing << 0x5))), function at exception vector 29 too large)

.vector_30      0x9d03f5c0        0x8
 *(.vector_30)
 .vector_30     0x9d03f5c0        0x8 /Applications/microchip/xc32/v2.50/bin/bin/../../lib/gcc/pic32mx/4.8.3/../../../../pic32mx/lib/libpic32.a(vector30.o)
                0x9d03f5c0                __vector_dispatch_30
                0x00000001                ASSERT (((_vector_spacing == 0x0) || (SIZEOF (.vector_30) <= (_vector_spacing << 0x5))), function at exception vector 30 too large)

.vector_31      0x9d03f5e0        0x8
 *(.vector_31)
 .vector_31     0x9d03f5e0        0x8 /Applications/microchip/xc32/v2.50/bin/bin/../../lib/gcc/pic32mx/4.8.3/../../../../pic32mx/lib/libpic32.a(vector31.o)
                0x9d03f5e0                __vector_dispatch_31
                0x00000001                ASSERT (((_vector_spacing == 0x0) || (SIZEOF (.vector_31) <= (_vector_spacing << 0x5))), function at exception vector 31 too large)

.vector_32      0x9d03f600        0x8
 *(.vector_32)
 .vector_32     0x9d03f600        0x8 /Applications/microchip/xc32/v2.50/bin/bin/../../lib/gcc/pic32mx/4.8.3/../../../../pic32mx/lib/libpic32.a(vector32.o)
                0x9d03f600                __vector_dispatch_32
                0x00000001                ASSERT (((_vector_spacing == 0x0) || (SIZEOF (.vector_32) <= (_vector_spacing << 0x5))), function at exception vector 32 too large)

.vector_33      0x9d03f620        0x8
 *(.vector_33)
 .vector_33     0x9d03f620        0x8 /Applications/microchip/xc32/v2.50/bin/bin/../../lib/gcc/pic32mx/4.8.3/../../../../pic32mx/lib/libpic32.a(vector33.o)
                0x9d03f620                __vector_dispatch_33
                0x00000001                ASSERT (((_vector_spacing == 0x0) || (SIZEOF (.vector_33) <= (_vector_spacing << 0x5))), function at exception vector 33 too large)

.vector_34      0x9d03f640        0x8
 *(.vector_34)
 .vector_34     0x9d03f640        0x8 /Applications/microchip/xc32/v2.50/bin/bin/../../lib/gcc/pic32mx/4.8.3/../../../../pic32mx/lib/libpic32.a(vector34.o)
                0x9d03f640                __vector_dispatch_34
                0x00000001                ASSERT (((_vector_spacing == 0x0) || (SIZEOF (.vector_34) <= (_vector_spacing << 0x5))), function at exception vector 34 too large)

.vector_35      0x9d03f660        0x8
 *(.vector_35)
 .vector_35     0x9d03f660        0x8 /Applications/microchip/xc32/v2.50/bin/bin/../../lib/gcc/pic32mx/4.8.3/../../../../pic32mx/lib/libpic32.a(vector35.o)
                0x9d03f660                __vector_dispatch_35
                0x00000001                ASSERT (((_vector_spacing == 0x0) || (SIZEOF (.vector_35) <= (_vector_spacing << 0x5))), function at exception vector 35 too large)

.vector_36      0x9d03f680        0x8
 *(.vector_36)
 .vector_36     0x9d03f680        0x8 /Applications/microchip/xc32/v2.50/bin/bin/../../lib/gcc/pic32mx/4.8.3/../../../../pic32mx/lib/libpic32.a(vector36.o)
                0x9d03f680                __vector_dispatch_36
                0x00000001                ASSERT (((_vector_spacing == 0x0) || (SIZEOF (.vector_36) <= (_vector_spacing << 0x5))), function at exception vector 36 too large)

.vector_37      0x9d03f6a0        0x8
 *(.vector_37)
 .vector_37     0x9d03f6a0        0x8 build/FrameworkWith_u8g2/production/ProjectSource/Comms.o
                0x9d03f6a0                __vector_dispatch_37
                0x00000001                ASSERT (((_vector_spacing == 0x0) || (SIZEOF (.vector_37) <= (_vector_spacing << 0x5))), function at exception vector 37 too large)

.vector_38      0x9d03f6c0        0x8
 *(.vector_38)
 .vector_38     0x9d03f6c0        0x8 /Applications/microchip/xc32/v2.50/bin/bin/../../lib/gcc/pic32mx/4.8.3/../../../../pic32mx/lib/libpic32.a(vector38.o)
                0x9d03f6c0                __vector_dispatch_38
                0x00000001                ASSERT (((_vector_spacing == 0x0) || (SIZEOF (.vector_38) <= (_vector_spacing << 0x5))), function at exception vector 38 too large)

.vector_39      0x9d03f6e0        0x8
 *(.vector_39)
 .vector_39     0x9d03f6e0        0x8 /Applications/microchip/xc32/v2.50/bin/bin/../../lib/gcc/pic32mx/4.8.3/../../../../pic32mx/lib/libpic32.a(vector39.o)
                0x9d03f6e0                __vector_dispatch_39
                0x00000001                ASSERT (((_vector_spacing == 0x0) || (SIZEOF (.vector_39) <= (_vector_spacing << 0x5))), function at exception vector 39 too large)

.vector_40      0x9d03f700        0x8
 *(.vector_40)
 .vector_40     0x9d03f700        0x8 /Applications/microchip/xc32/v2.50/bin/bin/../../lib/gcc/pic32mx/4.8.3/../../../../pic32mx/lib/libpic32.a(vector40.o)
                0x9d03f700                __vector_dispatch_40
                0x00000001                ASSERT (((_vector_spacing == 0x0) || (SIZEOF (.vector_40) <= (_vector_spacing << 0x5))), function at exception vector 40 too large)

.vector_41      0x9d03f720        0x8
 *(.vector_41)
 .vector_41     0x9d03f720        0x8 /Applications/microchip/xc32/v2.50/bin/bin/../../lib/gcc/pic32mx/4.8.3/../../../../pic32mx/lib/libpic32.a(vector41.o)
                0x9d03f720                __vector_dispatch_41
                0x00000001                ASSERT (((_vector_spacing == 0x0) || (SIZEOF (.vector_41) <= (_vector_spacing << 0x5))), function at exception vector 41 too large)

.vector_42      0x9d03f740        0x8
 *(.vector_42)
 .vector_42     0x9d03f740        0x8 /Applications/microchip/xc32/v2.50/bin/bin/../../lib/gcc/pic32mx/4.8.3/../../../../pic32mx/lib/libpic32.a(vector42.o)
                0x9d03f740                __vector_dispatch_42
                0x00000001                ASSERT (((_vector_spacing == 0x0) || (SIZEOF (.vector_42) <= (_vector_spacing << 0x5))), function at exception vector 42 too large)

.vector_43      0x9d03f760        0x8
 *(.vector_43)
 .vector_43     0x9d03f760        0x8 /Applications/microchip/xc32/v2.50/bin/bin/../../lib/gcc/pic32mx/4.8.3/../../../../pic32mx/lib/libpic32.a(vector43.o)
                0x9d03f760                __vector_dispatch_43
                0x00000001                ASSERT (((_vector_spacing == 0x0) || (SIZEOF (.vector_43) <= (_vector_spacing << 0x5))), function at exception vector 43 too large)

.vector_44      0x9d03f780        0x0
 *(.vector_44)
                0x00000001                ASSERT (((_vector_spacing == 0x0) || (SIZEOF (.vector_44) <= (_vector_spacing << 0x5))), function at exception vector 44 too large)

.vector_45      0x9d03f7a0        0x0
 *(.vector_45)
                0x00000001                ASSERT (((_vector_spacing == 0x0) || (SIZEOF (.vector_45) <= (_vector_spacing << 0x5))), function at exception vector 45 too large)

.vector_46      0x9d03f7c0        0x0
 *(.vector_46)
                0x00000001                ASSERT (((_vector_spacing == 0x0) || (SIZEOF (.vector_46) <= (_vector_spacing << 0x5))), function at exception vector 46 too large)

.vector_47      0x9d03f7e0        0x0
 *(.vector_47)
                0x00000001                ASSERT (((_vector_spacing == 0x0) || (SIZEOF (.vector_47) <= (_vector_spacing << 0x5))), function at exception vector 47 too large)

.vector_48      0x9d03f800        0x0
 *(.vector_48)
                0x00000001                ASSERT (((_vector_spacing == 0x0) || (SIZEOF (.vector_48) <= (_vector_spacing << 0x5))), function at exception vector 48 too large)

.vector_49      0x9d03f820        0x0
 *(.vector_49)
                0x00000001                ASSERT (((_vector_spacing == 0x0) || (SIZEOF (.vector_49) <= (_vector_spacing << 0x5))), function at exception vector 49 too large)

.vector_50      0x9d03f840        0x0
 *(.vector_50)
                0x00000001                ASSERT (((_vector_spacing == 0x0) || (SIZEOF (.vector_50) <= (_vector_spacing << 0x5))), function at exception vector 50 too large)

.vector_51      0x9d03f860        0x0
 *(.vector_51)
                0x00000001                ASSERT (((_vector_spacing == 0x0) || (SIZEOF (.vector_51) <= (_vector_spacing << 0x5))), function at exception vector 51 too large)

.vector_52      0x9d03f880        0x0
 *(.vector_52)
                0x00000001                ASSERT (((_vector_spacing == 0x0) || (SIZEOF (.vector_52) <= (_vector_spacing << 0x5))), function at exception vector 52 too large)

.vector_53      0x9d03f8a0        0x0
 *(.vector_53)
                0x00000001                ASSERT (((_vector_spacing == 0x0) || (SIZEOF (.vector_53) <= (_vector_spacing << 0x5))), function at exception vector 53 too large)

.vector_54      0x9d03f8c0        0x0
 *(.vector_54)
                0x00000001                ASSERT (((_vector_spacing == 0x0) || (SIZEOF (.vector_54) <= (_vector_spacing << 0x5))), function at exception vector 54 too large)

.vector_55      0x9d03f8e0        0x0
 *(.vector_55)
                0x00000001                ASSERT (((_vector_spacing == 0x0) || (SIZEOF (.vector_55) <= (_vector_spacing << 0x5))), function at exception vector 55 too large)

.vector_56      0x9d03f900        0x0
 *(.vector_56)
                0x00000001                ASSERT (((_vector_spacing == 0x0) || (SIZEOF (.vector_56) <= (_vector_spacing << 0x5))), function at exception vector 56 too large)

.vector_57      0x9d03f920        0x0
 *(.vector_57)
                0x00000001                ASSERT (((_vector_spacing == 0x0) || (SIZEOF (.vector_57) <= (_vector_spacing << 0x5))), function at exception vector 57 too large)

.vector_58      0x9d03f940        0x0
 *(.vector_58)
                0x00000001                ASSERT (((_vector_spacing == 0x0) || (SIZEOF (.vector_58) <= (_vector_spacing << 0x5))), function at exception vector 58 too large)

.vector_59      0x9d03f960        0x0
 *(.vector_59)
                0x00000001                ASSERT (((_vector_spacing == 0x0) || (SIZEOF (.vector_59) <= (_vector_spacing << 0x5))), function at exception vector 59 too large)

.vector_60      0x9d03f980        0x0
 *(.vector_60)
                0x00000001                ASSERT (((_vector_spacing == 0x0) || (SIZEOF (.vector_60) <= (_vector_spacing << 0x5))), function at exception vector 60 too large)

.vector_61      0x9d03f9a0        0x0
 *(.vector_61)
                0x00000001                ASSERT (((_vector_spacing == 0x0) || (SIZEOF (.vector_61) <= (_vector_spacing << 0x5))), function at exception vector 61 too large)

.vector_62      0x9d03f9c0        0x0
 *(.vector_62)
                0x00000001                ASSERT (((_vector_spacing == 0x0) || (SIZEOF (.vector_62) <= (_vector_spacing << 0x5))), function at exception vector 62 too large)

.vector_63      0x9d03f9e0        0x0
 *(.vector_63)
                0x00000001                ASSERT (((_vector_spacing == 0x0) || (SIZEOF (.vector_63) <= (_vector_spacing << 0x5))), function at exception vector 63 too large)

.startup
 *(.startup)

.text           0x9d000000        0x0
 *(.stub .gnu.linkonce.t.*)
 *(.text.*personality*)
 *(.mips16.fn.*)
 *(.mips16.call.*)
 *(.gnu.warning)
                0x9d000000                . = ALIGN (0x4)

.init           0x9d000000        0x0
 *crti.o(.init)
 *crtbegin.o(.init)
 *(EXCLUDE_FILE(*crtn.o *crtend?.o *crtend.o) .init)
 *crtend.o(.init)
 *crtn.o(.init)
                0x9d000000                . = ALIGN (0x4)

.fini           0x9d000000        0x0
 *(.fini)
                0x9d000000                . = ALIGN (0x4)

.preinit_array  0x9d000000        0x0
                0x9d000000                PROVIDE (__preinit_array_start, .)
 *(.preinit_array)
                0x9d000000                PROVIDE (__preinit_array_end, .)
                0x9d000000                . = ALIGN (0x4)

.init_array     0x9d000000        0x0
                0x9d000000                PROVIDE (__init_array_start, .)
 *(SORT(.init_array.*))
 *(.init_array)
                0x9d000000                PROVIDE (__init_array_end, .)
                0x9d000000                . = ALIGN (0x4)

.fini_array     0x9d000000        0x0
                0x9d000000                PROVIDE (__fini_array_start, .)
 *(SORT(.fini_array.*))
 *(.fini_array)
                0x9d000000                PROVIDE (__fini_array_end, .)
                0x9d000000                . = ALIGN (0x4)

.ctors          0x9d000000        0x0
 *crtbegin.o(.ctors)
 *crtbegin?.o(.ctors)
 *(EXCLUDE_FILE(*crtend?.o *crtend.o) .ctors)
 *(SORT(.ctors.*))
 *(.ctors)
                0x9d000000                . = ALIGN (0x4)

.dtors          0x9d000000        0x0
 *crtbegin.o(.dtors)
 *crtbegin?.o(.dtors)
 *(EXCLUDE_FILE(*crtend?.o *crtend.o) .dtors)
 *(SORT(.dtors.*))
 *(.dtors)
                0x9d000000                . = ALIGN (0x4)

.rodata         0x9d000000        0x0
 *(.gnu.linkonce.r.*)
 *(.rodata1)
                0x9d000000                . = ALIGN (0x4)

.sdata2         0x9fc00490        0x0
 *(.sdata2 .sdata2.* .gnu.linkonce.s2.*)
                0x9fc00490                . = ALIGN (0x4)

.sbss2          0x9fc00490        0x0
 *(.sbss2 .sbss2.* .gnu.linkonce.sb2.*)
                0x9fc00490                . = ALIGN (0x4)

.eh_frame_hdr
 *(.eh_frame_hdr)
                0x9fc00490                . = ALIGN (0x4)

.eh_frame
 *(.eh_frame)
                0x9fc00490                . = ALIGN (0x4)

.gcc_except_table
 *(.gcc_except_table .gcc_except_table.*)
                0x9fc00490                . = ALIGN (0x4)

.dbg_data       0xa0000000        0x0
                0xa0000000                . = (. + DEFINED (_DEBUGGER)?0x200:0x0)

.jcr            0xa0000000        0x0
 *(.jcr)
                0xa0000000                . = ALIGN (0x4)

.eh_frame
 *(.eh_frame)
                0xa0000000                . = ALIGN (0x4)

.gcc_except_table
 *(.gcc_except_table .gcc_except_table.*)
                0xa0000000                . = ALIGN (0x4)

.persist        0xa0000000        0x0
                0xa0000000                _persist_begin = .
 *(.persist .persist.*)
 *(.pbss .pbss.*)
                0xa0000000                . = ALIGN (0x4)
                0xa0000000                _persist_end = .

.data           0xa0000000        0x0
 *(.gnu.linkonce.d.*)
 *(.data1)
                0xa0000000                . = ALIGN (0x4)
                0xa0000000                . = .
                0xa0007ff0                _gp = (ALIGN (0x10) + 0x7ff0)

.got            0xa0000000        0x0
 *(.got.plt)
 *(.got)
                0xa0000000                . = ALIGN (0x4)

.sdata          0xa0000000       0x10
                0xa0000000                _sdata_begin = .
 *(.sdata .sdata.* .gnu.linkonce.s.*)
 .sdata         0xa0000000        0x4 build/FrameworkWith_u8g2/production/ProjectSource/CommsRx.o
 .sdata         0xa0000004        0x1 build/FrameworkWith_u8g2/production/ProjectSource/TVS.o
 *fill*         0xa0000005        0x3 
 .sdata         0xa0000008        0x4 /Applications/microchip/xc32/v2.50/bin/bin/../../lib/gcc/pic32mx/4.8.3/../../../../pic32mx/lib/libpic32.a(xc32_uart.o)
                0xa0000008                __XC_UART
 .sdata         0xa000000c        0x4 /Applications/microchip/xc32/v2.50/bin/bin/../../lib/gcc/pic32mx/4.8.3/../../../../pic32mx/lib/liblega-c.a(_iobdata.o)
                0xa000000c                _libc_data
                0xa0000010                . = ALIGN (0x4)
                0xa0000010                _sdata_end = .

.lit8
 *(.lit8)

.lit4
 *(.lit4)
                0xa0000010                . = ALIGN (0x4)
                0xa0000010                _data_end = .
                0xa0000010                _bss_begin = .

.sbss           0xa0000010      0x104
                0xa0000010                _sbss_begin = .
 *(.dynsbss)
 *(.sbss .sbss.* .gnu.linkonce.sb.*)
 .sbss          0xa0000010        0xc build/FrameworkWith_u8g2/production/FrameworkSource/ES_Port.o
 .sbss          0xa000001c       0x14 build/FrameworkWith_u8g2/production/FrameworkSource/ES_Timers.o
 .sbss          0xa0000030        0x4 build/FrameworkWith_u8g2/production/FrameworkSource/ES_CheckEvents.o
 .sbss          0xa0000034        0xc build/FrameworkWith_u8g2/production/FrameworkSource/ES_Framework.o
 .sbss          0xa0000040        0x4 build/FrameworkWith_u8g2/production/FrameworkSource/ES_PostList.o
 .sbss          0xa0000044        0x4 build/FrameworkWith_u8g2/production/ProjectSource/EventCheckers.o
 .sbss          0xa0000048        0x8 build/FrameworkWith_u8g2/production/ProjectSource/dbprintf.o
 .sbss          0xa0000050       0x20 build/FrameworkWith_u8g2/production/ProjectSource/joystickHelpers.o
 .sbss          0xa0000070        0x2 build/FrameworkWith_u8g2/production/ProjectSource/OLEDService.o
 *fill*         0xa0000072        0x2 
 .sbss          0xa0000074       0x18 build/FrameworkWith_u8g2/production/ProjectSource/Comms.o
 .sbss          0xa000008c        0x3 build/FrameworkWith_u8g2/production/ProjectSource/CommsRx.o
 *fill*         0xa000008f        0x1 
 .sbss          0xa0000090        0x4 build/FrameworkWith_u8g2/production/ProjectSource/CommsTx.o
 .sbss          0xa0000094       0x10 build/FrameworkWith_u8g2/production/ProjectSource/OPAMP.o
 .sbss          0xa00000a4       0x2c build/FrameworkWith_u8g2/production/ProjectSource/TVS.o
 .sbss          0xa00000d0       0x10 build/FrameworkWith_u8g2/production/ProjectSource/ZENER.o
 .sbss          0xa00000e0        0x8 build/FrameworkWith_u8g2/production/u8g2/u8g2_setup.o
 .sbss          0xa00000e8        0x2 build/FrameworkWith_u8g2/production/u8g2/u8x8_byte.o
 .sbss          0xa00000ea        0x4 build/FrameworkWith_u8g2/production/u8g2/u8x8_cad.o
 *fill*         0xa00000ee        0x2 
 .sbss          0xa00000f0        0x8 build/FrameworkWith_u8g2/production/u8g2/u8x8_u16toa.o
 .sbss          0xa00000f8        0x4 build/FrameworkWith_u8g2/production/u8g2/u8x8_u8toa.o
 .sbss          0xa00000fc        0x4 /Applications/microchip/xc32/v2.50/bin/bin/../../lib/gcc/pic32mx/4.8.3/../../../../pic32mx/lib/liblega-c.a(errno.o)
                0xa00000fc                errno
 *(.scommon)
 .scommon       0xa0000100        0x1 build/FrameworkWith_u8g2/production/FrameworkSource/ES_Port.o
                0xa0000100                _INTCON_temp
 *fill*         0xa0000101        0x3 
 .scommon       0xa0000104        0x9 build/FrameworkWith_u8g2/production/FrameworkSource/ES_Timers.o
                0xa0000104                TransmitNum
                0xa0000105                OPAMP_ACTIVE
                0xa0000106                TVS_ACTIVE
                0xa0000108                SELF
                0xa000010c                ZENER_ACTIVE
 *fill*         0xa000010d        0x1 
 .scommon       0xa000010e        0x2 build/FrameworkWith_u8g2/production/FrameworkSource/ES_Framework.o
                0xa000010e                Ready
 .scommon       0xa0000110        0x0 build/FrameworkWith_u8g2/production/FrameworkSource/ES_PostList.o
 .scommon       0xa0000110        0x0 build/FrameworkWith_u8g2/production/ProjectSource/EventCheckers.o
 .scommon       0xa0000110        0x1 build/FrameworkWith_u8g2/production/ProjectSource/PIC32_AD_Lib.o
                0xa0000110                numChanInSet
 .scommon       0xa0000111        0x0 build/FrameworkWith_u8g2/production/ProjectSource/joystickHelpers.o
 .scommon       0xa0000111        0x0 build/FrameworkWith_u8g2/production/ProjectSource/Comms.o
 .scommon       0xa0000111        0x0 build/FrameworkWith_u8g2/production/ProjectSource/CommsRx.o
 .scommon       0xa0000111        0x0 build/FrameworkWith_u8g2/production/ProjectSource/CommsTx.o
 .scommon       0xa0000111        0x0 build/FrameworkWith_u8g2/production/ProjectSource/TVS.o
 .scommon       0xa0000111        0x0 build/FrameworkWith_u8g2/production/ProjectSource/ZENER.o
                0xa0000111                _sbss_end = .
                0xa0000114                . = ALIGN (0x4)
 *fill*         0xa0000111        0x3 

.bss            0xa0000114       0xf0
 *(.dynbss)
 *(COMMON)
 COMMON         0xa0000114       0x2e build/FrameworkWith_u8g2/production/FrameworkSource/ES_Timers.o
                0xa0000114                ZENER_BUFFER
                0xa0000120                OPAMP_BUFFER
                0xa000012c                BROADCAST_BUFFER
                0xa0000138                TVS_BUFFER
 *fill*         0xa0000142        0x2 
 COMMON         0xa0000144       0xbe build/FrameworkWith_u8g2/production/ProjectSource/Comms.o
                0xa0000144                realB4RxPacket
                0xa000015c                realB3RxPacket
                0xa0000174                realB1RxPacket
                0xa000018c                realB5RxPacket
                0xa00001a4                realB2RxPacket
                0xa00001bc                realTeamRxPacket
                0xa00001d4                realB6RxPacket
                0xa00001ec                realB0RxPacket
                0xa0000204                . = ALIGN ((. != 0x0)?0x4:0x1)
 *fill*         0xa0000202        0x2 
                0xa0000204                . = ALIGN (0x4)
                0xa0000204                _end = .
                0xa0000204                _bss_end = .
                0x00010000                _bmxdudba_address = 0x10000
                0x00010000                _bmxdupba_address = 0x10000

/DISCARD/
 *(.pdr)
 *(.rel.dyn)
 *(.note.GNU-stack)
 *(.note.GNU-stack)
 *(.gnu_debuglink)
 *(.gnu.lto_*)
 *(.discard)

.gptab.sdata
 *(.gptab.data)
 *(.gptab.sdata)

.gptab.sbss
 *(.gptab.bss)
 *(.gptab.sbss)

.mdebug.abi32   0xa0000204        0x0
 *(.mdebug.abi32)
 .mdebug.abi32  0xa0000204        0x0 build/FrameworkWith_u8g2/production/FrameworkSource/ES_Port.o
 .mdebug.abi32  0xa0000204        0x0 build/FrameworkWith_u8g2/production/FrameworkSource/ES_Timers.o
 .mdebug.abi32  0xa0000204        0x0 build/FrameworkWith_u8g2/production/FrameworkSource/ES_LookupTables.o
 .mdebug.abi32  0xa0000204        0x0 build/FrameworkWith_u8g2/production/FrameworkSource/ES_CheckEvents.o
 .mdebug.abi32  0xa0000204        0x0 build/FrameworkWith_u8g2/production/FrameworkSource/ES_DeferRecall.o
 .mdebug.abi32  0xa0000204        0x0 build/FrameworkWith_u8g2/production/FrameworkSource/ES_Framework.o
 .mdebug.abi32  0xa0000204        0x0 build/FrameworkWith_u8g2/production/FrameworkSource/ES_Queue.o
 .mdebug.abi32  0xa0000204        0x0 build/FrameworkWith_u8g2/production/FrameworkSource/ES_PostList.o
 .mdebug.abi32  0xa0000204        0x0 build/FrameworkWith_u8g2/production/FrameworkSource/terminal.o
 .mdebug.abi32  0xa0000204        0x0 build/FrameworkWith_u8g2/production/ProjectSource/main.o
 .mdebug.abi32  0xa0000204        0x0 build/FrameworkWith_u8g2/production/ProjectSource/EventCheckers.o
 .mdebug.abi32  0xa0000204        0x0 build/FrameworkWith_u8g2/production/ProjectSource/dbprintf.o
 .mdebug.abi32  0xa0000204        0x0 build/FrameworkWith_u8g2/production/ProjectSource/pinsHAL.o
 .mdebug.abi32  0xa0000204        0x0 build/FrameworkWith_u8g2/production/ProjectSource/PIC32_AD_Lib.o
 .mdebug.abi32  0xa0000204        0x0 build/FrameworkWith_u8g2/production/ProjectSource/joystickHelpers.o
 .mdebug.abi32  0xa0000204        0x0 build/FrameworkWith_u8g2/production/ProjectSource/spiHAL.o
 .mdebug.abi32  0xa0000204        0x0 build/FrameworkWith_u8g2/production/ProjectSource/OLEDService.o
 .mdebug.abi32  0xa0000204        0x0 build/FrameworkWith_u8g2/production/ProjectSource/Comms.o
 .mdebug.abi32  0xa0000204        0x0 build/FrameworkWith_u8g2/production/ProjectSource/CommsRx.o
 .mdebug.abi32  0xa0000204        0x0 build/FrameworkWith_u8g2/production/ProjectSource/CommsTx.o
 .mdebug.abi32  0xa0000204        0x0 build/FrameworkWith_u8g2/production/ProjectSource/OPAMP.o
 .mdebug.abi32  0xa0000204        0x0 build/FrameworkWith_u8g2/production/ProjectSource/PackDataHandler.o
 .mdebug.abi32  0xa0000204        0x0 build/FrameworkWith_u8g2/production/ProjectSource/TVS.o
 .mdebug.abi32  0xa0000204        0x0 build/FrameworkWith_u8g2/production/ProjectSource/ZENER.o
 .mdebug.abi32  0xa0000204        0x0 build/FrameworkWith_u8g2/production/u8g2/spi_master.o
 .mdebug.abi32  0xa0000204        0x0 build/FrameworkWith_u8g2/production/u8g2/u8g2_bitmap.o
 .mdebug.abi32  0xa0000204        0x0 build/FrameworkWith_u8g2/production/u8g2/u8g2_box.o
 .mdebug.abi32  0xa0000204        0x0 build/FrameworkWith_u8g2/production/u8g2/u8g2_buffer.o
 .mdebug.abi32  0xa0000204        0x0 build/FrameworkWith_u8g2/production/u8g2/u8g2_circle.o
 .mdebug.abi32  0xa0000204        0x0 build/FrameworkWith_u8g2/production/u8g2/u8g2_cleardisplay.o
 .mdebug.abi32  0xa0000204        0x0 build/FrameworkWith_u8g2/production/u8g2/u8g2_d_memory.o
 .mdebug.abi32  0xa0000204        0x0 build/FrameworkWith_u8g2/production/u8g2/u8g2_d_setup.o
 .mdebug.abi32  0xa0000204        0x0 build/FrameworkWith_u8g2/production/u8g2/u8g2_font.o
 .mdebug.abi32  0xa0000204        0x0 build/FrameworkWith_u8g2/production/u8g2/u8g2_fonts.o
 .mdebug.abi32  0xa0000204        0x0 build/FrameworkWith_u8g2/production/u8g2/u8g2_hvline.o
 .mdebug.abi32  0xa0000204        0x0 build/FrameworkWith_u8g2/production/u8g2/u8g2_input_value.o
 .mdebug.abi32  0xa0000204        0x0 build/FrameworkWith_u8g2/production/u8g2/u8g2_intersection.o
 .mdebug.abi32  0xa0000204        0x0 build/FrameworkWith_u8g2/production/u8g2/u8g2_kerning.o
 .mdebug.abi32  0xa0000204        0x0 build/FrameworkWith_u8g2/production/u8g2/u8g2_line.o
 .mdebug.abi32  0xa0000204        0x0 build/FrameworkWith_u8g2/production/u8g2/u8g2_ll_hvline.o
 .mdebug.abi32  0xa0000204        0x0 build/FrameworkWith_u8g2/production/u8g2/u8g2_message.o
 .mdebug.abi32  0xa0000204        0x0 build/FrameworkWith_u8g2/production/u8g2/u8g2_pic32mz.o
 .mdebug.abi32  0xa0000204        0x0 build/FrameworkWith_u8g2/production/u8g2/u8g2_polygon.o
 .mdebug.abi32  0xa0000204        0x0 build/FrameworkWith_u8g2/production/u8g2/u8g2_selection_list.o
 .mdebug.abi32  0xa0000204        0x0 build/FrameworkWith_u8g2/production/u8g2/u8g2_setup.o
 .mdebug.abi32  0xa0000204        0x0 build/FrameworkWith_u8g2/production/u8g2/u8log.o
 .mdebug.abi32  0xa0000204        0x0 build/FrameworkWith_u8g2/production/u8g2/u8log_u8g2.o
 .mdebug.abi32  0xa0000204        0x0 build/FrameworkWith_u8g2/production/u8g2/u8log_u8x8.o
 .mdebug.abi32  0xa0000204        0x0 build/FrameworkWith_u8g2/production/u8g2/u8x8_8x8.o
 .mdebug.abi32  0xa0000204        0x0 build/FrameworkWith_u8g2/production/u8g2/u8x8_byte.o
 .mdebug.abi32  0xa0000204        0x0 build/FrameworkWith_u8g2/production/u8g2/u8x8_cad.o
 .mdebug.abi32  0xa0000204        0x0 build/FrameworkWith_u8g2/production/u8g2/u8x8_d_ssd1306_128x64_noname.o
 .mdebug.abi32  0xa0000204        0x0 build/FrameworkWith_u8g2/production/u8g2/u8x8_debounce.o
 .mdebug.abi32  0xa0000204        0x0 build/FrameworkWith_u8g2/production/u8g2/u8x8_display.o
 .mdebug.abi32  0xa0000204        0x0 build/FrameworkWith_u8g2/production/u8g2/u8x8_fonts.o
 .mdebug.abi32  0xa0000204        0x0 build/FrameworkWith_u8g2/production/u8g2/u8x8_gpio.o
 .mdebug.abi32  0xa0000204        0x0 build/FrameworkWith_u8g2/production/u8g2/u8x8_input_value.o
 .mdebug.abi32  0xa0000204        0x0 build/FrameworkWith_u8g2/production/u8g2/u8x8_message.o
 .mdebug.abi32  0xa0000204        0x0 build/FrameworkWith_u8g2/production/u8g2/u8x8_selection_list.o
 .mdebug.abi32  0xa0000204        0x0 build/FrameworkWith_u8g2/production/u8g2/u8x8_setup.o
 .mdebug.abi32  0xa0000204        0x0 build/FrameworkWith_u8g2/production/u8g2/u8x8_string.o
 .mdebug.abi32  0xa0000204        0x0 build/FrameworkWith_u8g2/production/u8g2/u8x8_u16toa.o
 .mdebug.abi32  0xa0000204        0x0 build/FrameworkWith_u8g2/production/u8g2/u8x8_u8toa.o
 .mdebug.abi32  0xa0000204        0x0 /Applications/microchip/xc32/v2.50/bin/bin/../../lib/gcc/pic32mx/4.8.3/libgcc.a(floatunsidf.o)
 .mdebug.abi32  0xa0000204        0x0 /Applications/microchip/xc32/v2.50/bin/bin/../../lib/gcc/pic32mx/4.8.3/../../../../pic32mx/lib/libpic32.a(default-bootstrap-exception-handler.o)
 .mdebug.abi32  0xa0000204        0x0 /Applications/microchip/xc32/v2.50/bin/bin/../../lib/gcc/pic32mx/4.8.3/../../../../pic32mx/lib/libpic32.a(default-on-reset.o)
 .mdebug.abi32  0xa0000204        0x0 /Applications/microchip/xc32/v2.50/bin/bin/../../lib/gcc/pic32mx/4.8.3/../../../../pic32mx/lib/libpic32.a(default-on-bootstrap.o)
 .mdebug.abi32  0xa0000204        0x0 /Applications/microchip/xc32/v2.50/bin/bin/../../lib/gcc/pic32mx/4.8.3/../../../../pic32mx/lib/libpic32.a(xc32_uart.o)
 .mdebug.abi32  0xa0000204        0x0 /Applications/microchip/xc32/v2.50/bin/bin/../../lib/gcc/pic32mx/4.8.3/../../../../pic32mx/lib/libpic32.a(default-general-exception-handler.o)
 .mdebug.abi32  0xa0000204        0x0 /Applications/microchip/xc32/v2.50/bin/bin/../../lib/gcc/pic32mx/4.8.3/../../../../pic32mx/lib/libpic32.a(defaultinterrupt.o)
 .mdebug.abi32  0xa0000204        0x0 /Applications/microchip/xc32/v2.50/bin/bin/../../lib/gcc/pic32mx/4.8.3/../../../../pic32mx/lib/liblega-c.a(fputc.o)
 .mdebug.abi32  0xa0000204        0x0 /Applications/microchip/xc32/v2.50/bin/bin/../../lib/gcc/pic32mx/4.8.3/../../../../pic32mx/lib/liblega-c.a(fputs.o)
 .mdebug.abi32  0xa0000204        0x0 /Applications/microchip/xc32/v2.50/bin/bin/../../lib/gcc/pic32mx/4.8.3/../../../../pic32mx/lib/liblega-c.a(printf_cdfFnopuxX.eo)
 .mdebug.abi32  0xa0000204        0x0 /Applications/microchip/xc32/v2.50/bin/bin/../../lib/gcc/pic32mx/4.8.3/../../../../pic32mx/lib/liblega-c.a(strlen.o)
 .mdebug.abi32  0xa0000204        0x0 /Applications/microchip/xc32/v2.50/bin/bin/../../lib/gcc/pic32mx/4.8.3/../../../../pic32mx/lib/liblega-c.a(_doprnt_cdfFnopuxX.eo)
 .mdebug.abi32  0xa0000204        0x0 /Applications/microchip/xc32/v2.50/bin/bin/../../lib/gcc/pic32mx/4.8.3/../../../../pic32mx/lib/liblega-c.a(_iobdata.o)
 .mdebug.abi32  0xa0000204        0x0 /Applications/microchip/xc32/v2.50/bin/bin/../../lib/gcc/pic32mx/4.8.3/../../../../pic32mx/lib/liblega-c.a(_iobfuncs.o)
 .mdebug.abi32  0xa0000204        0x0 /Applications/microchip/xc32/v2.50/bin/bin/../../lib/gcc/pic32mx/4.8.3/../../../../pic32mx/lib/liblega-c.a(errno.o)
 .mdebug.abi32  0xa0000204        0x0 /Applications/microchip/xc32/v2.50/bin/bin/../../lib/gcc/pic32mx/4.8.3/../../../../pic32mx/lib/libm.a(w_sqrt.o)
 .mdebug.abi32  0xa0000204        0x0 /Applications/microchip/xc32/v2.50/bin/bin/../../lib/gcc/pic32mx/4.8.3/../../../../pic32mx/lib/libm.a(s_lib_ver.o)
 .mdebug.abi32  0xa0000204        0x0 /Applications/microchip/xc32/v2.50/bin/bin/../../lib/gcc/pic32mx/4.8.3/libgcc.a(_udivdi3.o)
 .mdebug.abi32  0xa0000204        0x0 /Applications/microchip/xc32/v2.50/bin/bin/../../lib/gcc/pic32mx/4.8.3/libgcc.a(_umoddi3.o)
 .mdebug.abi32  0xa0000204        0x0 /Applications/microchip/xc32/v2.50/bin/bin/../../lib/gcc/pic32mx/4.8.3/../../../../pic32mx/lib/libpic32.a(_mon_getc.o)
 .mdebug.abi32  0xa0000204        0x0 /Applications/microchip/xc32/v2.50/bin/bin/../../lib/gcc/pic32mx/4.8.3/../../../../pic32mx/lib/libpic32.a(_mon_write.o)
 .mdebug.abi32  0xa0000204        0x0 /Applications/microchip/xc32/v2.50/bin/bin/../../lib/gcc/pic32mx/4.8.3/../../../../pic32mx/lib/libpic32.a(_mon_putc.o)

.mdebug.abiN32
 *(.mdebug.abiN32)

.mdebug.abi64
 *(.mdebug.abi64)

.mdebug.abiO64
 *(.mdebug.abiO64)

.mdebug.eabi32
 *(.mdebug.eabi32)

.mdebug.eabi64
 *(.mdebug.eabi64)

.gcc_compiled_long32
 *(.gcc_compiled_long32)

.gcc_compiled_long64
 *(.gcc_compiled_long64)

.stab
 *(.stab)

.stabstr
 *(.stabstr)

.stab.excl
 *(.stab.excl)

.stab.exclstr
 *(.stab.exclstr)

.stab.index
 *(.stab.index)

.stab.indexstr
 *(.stab.indexstr)

.comment        0x00000000      0x2db
 *(.comment)
 .comment       0x00000000       0x3c build/FrameworkWith_u8g2/production/FrameworkSource/ES_Port.o
                                 0x3d (size before relaxing)
 .comment       0x00000000       0x3d build/FrameworkWith_u8g2/production/FrameworkSource/ES_Timers.o
 .comment       0x00000000       0x3d build/FrameworkWith_u8g2/production/FrameworkSource/ES_LookupTables.o
 .comment       0x00000000       0x3d build/FrameworkWith_u8g2/production/FrameworkSource/ES_CheckEvents.o
 .comment       0x00000000       0x3d build/FrameworkWith_u8g2/production/FrameworkSource/ES_DeferRecall.o
 .comment       0x00000000       0x3d build/FrameworkWith_u8g2/production/FrameworkSource/ES_Framework.o
 .comment       0x00000000       0x3d build/FrameworkWith_u8g2/production/FrameworkSource/ES_Queue.o
 .comment       0x00000000       0x3d build/FrameworkWith_u8g2/production/FrameworkSource/ES_PostList.o
 .comment       0x00000000       0x3d build/FrameworkWith_u8g2/production/FrameworkSource/terminal.o
 .comment       0x00000000       0x3d build/FrameworkWith_u8g2/production/ProjectSource/main.o
 .comment       0x00000000       0x3d build/FrameworkWith_u8g2/production/ProjectSource/EventCheckers.o
 .comment       0x00000000       0x3d build/FrameworkWith_u8g2/production/ProjectSource/dbprintf.o
 .comment       0x00000000       0x3d build/FrameworkWith_u8g2/production/ProjectSource/pinsHAL.o
 .comment       0x00000000       0x3d build/FrameworkWith_u8g2/production/ProjectSource/PIC32_AD_Lib.o
 .comment       0x00000000       0x3d build/FrameworkWith_u8g2/production/ProjectSource/joystickHelpers.o
 .comment       0x00000000       0x3d build/FrameworkWith_u8g2/production/ProjectSource/spiHAL.o
 .comment       0x00000000       0x3d build/FrameworkWith_u8g2/production/ProjectSource/OLEDService.o
 .comment       0x00000000       0x3d build/FrameworkWith_u8g2/production/ProjectSource/Comms.o
 .comment       0x00000000       0x3d build/FrameworkWith_u8g2/production/ProjectSource/CommsRx.o
 .comment       0x00000000       0x3d build/FrameworkWith_u8g2/production/ProjectSource/CommsTx.o
 .comment       0x00000000       0x3d build/FrameworkWith_u8g2/production/ProjectSource/OPAMP.o
 .comment       0x00000000       0x3d build/FrameworkWith_u8g2/production/ProjectSource/PackDataHandler.o
 .comment       0x00000000       0x3d build/FrameworkWith_u8g2/production/ProjectSource/TVS.o
 .comment       0x00000000       0x3d build/FrameworkWith_u8g2/production/ProjectSource/ZENER.o
 .comment       0x00000000       0x3d build/FrameworkWith_u8g2/production/u8g2/spi_master.o
 .comment       0x00000000       0x3d build/FrameworkWith_u8g2/production/u8g2/u8g2_bitmap.o
 .comment       0x00000000       0x3d build/FrameworkWith_u8g2/production/u8g2/u8g2_box.o
 .comment       0x00000000       0x3d build/FrameworkWith_u8g2/production/u8g2/u8g2_buffer.o
 .comment       0x00000000       0x3d build/FrameworkWith_u8g2/production/u8g2/u8g2_circle.o
 .comment       0x00000000       0x3d build/FrameworkWith_u8g2/production/u8g2/u8g2_cleardisplay.o
 .comment       0x00000000       0x3d build/FrameworkWith_u8g2/production/u8g2/u8g2_d_memory.o
 .comment       0x00000000       0x3d build/FrameworkWith_u8g2/production/u8g2/u8g2_d_setup.o
 .comment       0x00000000       0x3d build/FrameworkWith_u8g2/production/u8g2/u8g2_font.o
 .comment       0x00000000       0x3d build/FrameworkWith_u8g2/production/u8g2/u8g2_fonts.o
 .comment       0x00000000       0x3d build/FrameworkWith_u8g2/production/u8g2/u8g2_hvline.o
 .comment       0x00000000       0x3d build/FrameworkWith_u8g2/production/u8g2/u8g2_input_value.o
 .comment       0x00000000       0x3d build/FrameworkWith_u8g2/production/u8g2/u8g2_intersection.o
 .comment       0x00000000       0x3d build/FrameworkWith_u8g2/production/u8g2/u8g2_kerning.o
 .comment       0x00000000       0x3d build/FrameworkWith_u8g2/production/u8g2/u8g2_line.o
 .comment       0x00000000       0x3d build/FrameworkWith_u8g2/production/u8g2/u8g2_ll_hvline.o
 .comment       0x00000000       0x3d build/FrameworkWith_u8g2/production/u8g2/u8g2_message.o
 .comment       0x00000000       0x3d build/FrameworkWith_u8g2/production/u8g2/u8g2_pic32mz.o
 .comment       0x00000000       0x3d build/FrameworkWith_u8g2/production/u8g2/u8g2_polygon.o
 .comment       0x00000000       0x3d build/FrameworkWith_u8g2/production/u8g2/u8g2_selection_list.o
 .comment       0x00000000       0x3d build/FrameworkWith_u8g2/production/u8g2/u8g2_setup.o
 .comment       0x00000000       0x3d build/FrameworkWith_u8g2/production/u8g2/u8log.o
 .comment       0x00000000       0x3d build/FrameworkWith_u8g2/production/u8g2/u8log_u8g2.o
 .comment       0x00000000       0x3d build/FrameworkWith_u8g2/production/u8g2/u8log_u8x8.o
 .comment       0x00000000       0x3d build/FrameworkWith_u8g2/production/u8g2/u8x8_8x8.o
 .comment       0x00000000       0x3d build/FrameworkWith_u8g2/production/u8g2/u8x8_byte.o
 .comment       0x00000000       0x3d build/FrameworkWith_u8g2/production/u8g2/u8x8_cad.o
 .comment       0x00000000       0x3d build/FrameworkWith_u8g2/production/u8g2/u8x8_d_ssd1306_128x64_noname.o
 .comment       0x00000000       0x3d build/FrameworkWith_u8g2/production/u8g2/u8x8_debounce.o
 .comment       0x00000000       0x3d build/FrameworkWith_u8g2/production/u8g2/u8x8_display.o
 .comment       0x00000000       0x3d build/FrameworkWith_u8g2/production/u8g2/u8x8_fonts.o
 .comment       0x00000000       0x3d build/FrameworkWith_u8g2/production/u8g2/u8x8_gpio.o
 .comment       0x00000000       0x3d build/FrameworkWith_u8g2/production/u8g2/u8x8_input_value.o
 .comment       0x00000000       0x3d build/FrameworkWith_u8g2/production/u8g2/u8x8_message.o
 .comment       0x00000000       0x3d build/FrameworkWith_u8g2/production/u8g2/u8x8_selection_list.o
 .comment       0x00000000       0x3d build/FrameworkWith_u8g2/production/u8g2/u8x8_setup.o
 .comment       0x00000000       0x3d build/FrameworkWith_u8g2/production/u8g2/u8x8_string.o
 .comment       0x00000000       0x3d build/FrameworkWith_u8g2/production/u8g2/u8x8_u16toa.o
 .comment       0x00000000       0x3d build/FrameworkWith_u8g2/production/u8g2/u8x8_u8toa.o
 .comment       0x00000000       0x3d /Applications/microchip/xc32/v2.50/bin/bin/../../lib/gcc/pic32mx/4.8.3/libgcc.a(floatunsidf.o)
 .comment       0x0000003c       0x18 /Applications/microchip/xc32/v2.50/bin/bin/../../lib/gcc/pic32mx/4.8.3/../../../../pic32mx/lib/libpic32.a(memset.o)
                                 0x19 (size before relaxing)
 .comment       0x00000000       0x3d /Applications/microchip/xc32/v2.50/bin/bin/../../lib/gcc/pic32mx/4.8.3/../../../../pic32mx/lib/libpic32.a(default-bootstrap-exception-handler.o)
 .comment       0x00000000       0x3d /Applications/microchip/xc32/v2.50/bin/bin/../../lib/gcc/pic32mx/4.8.3/../../../../pic32mx/lib/libpic32.a(default-on-reset.o)
 .comment       0x00000000       0x3d /Applications/microchip/xc32/v2.50/bin/bin/../../lib/gcc/pic32mx/4.8.3/../../../../pic32mx/lib/libpic32.a(default-on-bootstrap.o)
 .comment       0x00000000       0x3d /Applications/microchip/xc32/v2.50/bin/bin/../../lib/gcc/pic32mx/4.8.3/../../../../pic32mx/lib/libpic32.a(xc32_uart.o)
 .comment       0x00000000       0x3d /Applications/microchip/xc32/v2.50/bin/bin/../../lib/gcc/pic32mx/4.8.3/../../../../pic32mx/lib/libpic32.a(default-general-exception-handler.o)
 .comment       0x00000000       0x3d /Applications/microchip/xc32/v2.50/bin/bin/../../lib/gcc/pic32mx/4.8.3/../../../../pic32mx/lib/libpic32.a(defaultinterrupt.o)
 .comment       0x00000054       0x50 /Applications/microchip/xc32/v2.50/bin/bin/../../lib/gcc/pic32mx/4.8.3/../../../../pic32mx/lib/liblega-c.a(fputc.o)
                                 0x8d (size before relaxing)
 .comment       0x000000a4       0x50 /Applications/microchip/xc32/v2.50/bin/bin/../../lib/gcc/pic32mx/4.8.3/../../../../pic32mx/lib/liblega-c.a(fputs.o)
                                 0x8d (size before relaxing)
 .comment       0x000000f4       0x51 /Applications/microchip/xc32/v2.50/bin/bin/../../lib/gcc/pic32mx/4.8.3/../../../../pic32mx/lib/liblega-c.a(printf_cdfFnopuxX.eo)
                                 0x8e (size before relaxing)
 .comment       0x00000145       0x4f /Applications/microchip/xc32/v2.50/bin/bin/../../lib/gcc/pic32mx/4.8.3/../../../../pic32mx/lib/liblega-c.a(strlen.o)
                                 0x8c (size before relaxing)
 .comment       0x00000194       0x52 /Applications/microchip/xc32/v2.50/bin/bin/../../lib/gcc/pic32mx/4.8.3/../../../../pic32mx/lib/liblega-c.a(_doprnt_cdfFnopuxX.eo)
                                 0x8f (size before relaxing)
 .comment       0x000001e6       0x53 /Applications/microchip/xc32/v2.50/bin/bin/../../lib/gcc/pic32mx/4.8.3/../../../../pic32mx/lib/liblega-c.a(_iobdata.o)
                                 0x90 (size before relaxing)
 .comment       0x00000239       0x54 /Applications/microchip/xc32/v2.50/bin/bin/../../lib/gcc/pic32mx/4.8.3/../../../../pic32mx/lib/liblega-c.a(_iobfuncs.o)
                                 0x91 (size before relaxing)
 .comment       0x0000028d       0x4e /Applications/microchip/xc32/v2.50/bin/bin/../../lib/gcc/pic32mx/4.8.3/../../../../pic32mx/lib/liblega-c.a(errno.o)
                                 0x8b (size before relaxing)
 .comment       0x00000000       0x3d /Applications/microchip/xc32/v2.50/bin/bin/../../lib/gcc/pic32mx/4.8.3/../../../../pic32mx/lib/libm.a(w_sqrt.o)
 .comment       0x00000000       0x3d /Applications/microchip/xc32/v2.50/bin/bin/../../lib/gcc/pic32mx/4.8.3/../../../../pic32mx/lib/libm.a(s_lib_ver.o)
 .comment       0x00000000       0x3d /Applications/microchip/xc32/v2.50/bin/bin/../../lib/gcc/pic32mx/4.8.3/libgcc.a(_udivdi3.o)
 .comment       0x00000000       0x3d /Applications/microchip/xc32/v2.50/bin/bin/../../lib/gcc/pic32mx/4.8.3/libgcc.a(_umoddi3.o)
 .comment       0x00000000       0x3d /Applications/microchip/xc32/v2.50/bin/bin/../../lib/gcc/pic32mx/4.8.3/../../../../pic32mx/lib/libpic32.a(_mon_getc.o)
 .comment       0x00000000       0x3d /Applications/microchip/xc32/v2.50/bin/bin/../../lib/gcc/pic32mx/4.8.3/../../../../pic32mx/lib/libpic32.a(_mon_write.o)
 .comment       0x00000000       0x3d /Applications/microchip/xc32/v2.50/bin/bin/../../lib/gcc/pic32mx/4.8.3/../../../../pic32mx/lib/libpic32.a(_mon_putc.o)

.debug
 *(.debug)

.line
 *(.line)

.debug_srcinfo
 *(.debug_srcinfo)

.debug_sfnames
 *(.debug_sfnames)

.debug_aranges  0x00000000      0x948
 *(.debug_aranges)
 .debug_aranges
                0x00000000       0x20 build/FrameworkWith_u8g2/production/FrameworkSource/ES_Port.o
 .debug_aranges
                0x00000020       0x20 build/FrameworkWith_u8g2/production/FrameworkSource/ES_Timers.o
 .debug_aranges
                0x00000040       0x20 build/FrameworkWith_u8g2/production/FrameworkSource/ES_LookupTables.o
 .debug_aranges
                0x00000060       0x20 build/FrameworkWith_u8g2/production/FrameworkSource/ES_CheckEvents.o
 .debug_aranges
                0x00000080       0x20 build/FrameworkWith_u8g2/production/FrameworkSource/ES_DeferRecall.o
 .debug_aranges
                0x000000a0       0x20 build/FrameworkWith_u8g2/production/FrameworkSource/ES_Framework.o
 .debug_aranges
                0x000000c0       0x20 build/FrameworkWith_u8g2/production/FrameworkSource/ES_Queue.o
 .debug_aranges
                0x000000e0       0x18 build/FrameworkWith_u8g2/production/FrameworkSource/ES_PostList.o
 .debug_aranges
                0x000000f8       0x20 build/FrameworkWith_u8g2/production/FrameworkSource/terminal.o
 .debug_aranges
                0x00000118       0x20 build/FrameworkWith_u8g2/production/ProjectSource/main.o
 .debug_aranges
                0x00000138       0x20 build/FrameworkWith_u8g2/production/ProjectSource/EventCheckers.o
 .debug_aranges
                0x00000158       0x20 build/FrameworkWith_u8g2/production/ProjectSource/dbprintf.o
 .debug_aranges
                0x00000178       0x20 build/FrameworkWith_u8g2/production/ProjectSource/pinsHAL.o
 .debug_aranges
                0x00000198       0x20 build/FrameworkWith_u8g2/production/ProjectSource/PIC32_AD_Lib.o
 .debug_aranges
                0x000001b8       0x20 build/FrameworkWith_u8g2/production/ProjectSource/joystickHelpers.o
 .debug_aranges
                0x000001d8       0x20 build/FrameworkWith_u8g2/production/ProjectSource/spiHAL.o
 .debug_aranges
                0x000001f8       0x20 build/FrameworkWith_u8g2/production/ProjectSource/OLEDService.o
 .debug_aranges
                0x00000218       0x20 build/FrameworkWith_u8g2/production/ProjectSource/Comms.o
 .debug_aranges
                0x00000238       0x20 build/FrameworkWith_u8g2/production/ProjectSource/CommsRx.o
 .debug_aranges
                0x00000258       0x20 build/FrameworkWith_u8g2/production/ProjectSource/CommsTx.o
 .debug_aranges
                0x00000278       0x20 build/FrameworkWith_u8g2/production/ProjectSource/OPAMP.o
 .debug_aranges
                0x00000298       0x20 build/FrameworkWith_u8g2/production/ProjectSource/PackDataHandler.o
 .debug_aranges
                0x000002b8       0x20 build/FrameworkWith_u8g2/production/ProjectSource/TVS.o
 .debug_aranges
                0x000002d8       0x20 build/FrameworkWith_u8g2/production/ProjectSource/ZENER.o
 .debug_aranges
                0x000002f8       0x20 build/FrameworkWith_u8g2/production/u8g2/spi_master.o
 .debug_aranges
                0x00000318       0x20 build/FrameworkWith_u8g2/production/u8g2/u8g2_bitmap.o
 .debug_aranges
                0x00000338       0x20 build/FrameworkWith_u8g2/production/u8g2/u8g2_box.o
 .debug_aranges
                0x00000358       0x20 build/FrameworkWith_u8g2/production/u8g2/u8g2_buffer.o
 .debug_aranges
                0x00000378       0x20 build/FrameworkWith_u8g2/production/u8g2/u8g2_circle.o
 .debug_aranges
                0x00000398       0x20 build/FrameworkWith_u8g2/production/u8g2/u8g2_cleardisplay.o
 .debug_aranges
                0x000003b8       0x20 build/FrameworkWith_u8g2/production/u8g2/u8g2_d_memory.o
 .debug_aranges
                0x000003d8       0x20 build/FrameworkWith_u8g2/production/u8g2/u8g2_d_setup.o
 .debug_aranges
                0x000003f8       0x20 build/FrameworkWith_u8g2/production/u8g2/u8g2_font.o
 .debug_aranges
                0x00000418       0x18 build/FrameworkWith_u8g2/production/u8g2/u8g2_fonts.o
 .debug_aranges
                0x00000430       0x20 build/FrameworkWith_u8g2/production/u8g2/u8g2_hvline.o
 .debug_aranges
                0x00000450       0x20 build/FrameworkWith_u8g2/production/u8g2/u8g2_input_value.o
 .debug_aranges
                0x00000470       0x20 build/FrameworkWith_u8g2/production/u8g2/u8g2_intersection.o
 .debug_aranges
                0x00000490       0x20 build/FrameworkWith_u8g2/production/u8g2/u8g2_kerning.o
 .debug_aranges
                0x000004b0       0x20 build/FrameworkWith_u8g2/production/u8g2/u8g2_line.o
 .debug_aranges
                0x000004d0       0x20 build/FrameworkWith_u8g2/production/u8g2/u8g2_ll_hvline.o
 .debug_aranges
                0x000004f0       0x20 build/FrameworkWith_u8g2/production/u8g2/u8g2_message.o
 .debug_aranges
                0x00000510       0x20 build/FrameworkWith_u8g2/production/u8g2/u8g2_pic32mz.o
 .debug_aranges
                0x00000530       0x20 build/FrameworkWith_u8g2/production/u8g2/u8g2_polygon.o
 .debug_aranges
                0x00000550       0x20 build/FrameworkWith_u8g2/production/u8g2/u8g2_selection_list.o
 .debug_aranges
                0x00000570       0x20 build/FrameworkWith_u8g2/production/u8g2/u8g2_setup.o
 .debug_aranges
                0x00000590       0x20 build/FrameworkWith_u8g2/production/u8g2/u8log.o
 .debug_aranges
                0x000005b0       0x20 build/FrameworkWith_u8g2/production/u8g2/u8log_u8g2.o
 .debug_aranges
                0x000005d0       0x20 build/FrameworkWith_u8g2/production/u8g2/u8log_u8x8.o
 .debug_aranges
                0x000005f0       0x20 build/FrameworkWith_u8g2/production/u8g2/u8x8_8x8.o
 .debug_aranges
                0x00000610       0x20 build/FrameworkWith_u8g2/production/u8g2/u8x8_byte.o
 .debug_aranges
                0x00000630       0x20 build/FrameworkWith_u8g2/production/u8g2/u8x8_cad.o
 .debug_aranges
                0x00000650       0x20 build/FrameworkWith_u8g2/production/u8g2/u8x8_d_ssd1306_128x64_noname.o
 .debug_aranges
                0x00000670       0x20 build/FrameworkWith_u8g2/production/u8g2/u8x8_debounce.o
 .debug_aranges
                0x00000690       0x20 build/FrameworkWith_u8g2/production/u8g2/u8x8_display.o
 .debug_aranges
                0x000006b0       0x18 build/FrameworkWith_u8g2/production/u8g2/u8x8_fonts.o
 .debug_aranges
                0x000006c8       0x20 build/FrameworkWith_u8g2/production/u8g2/u8x8_gpio.o
 .debug_aranges
                0x000006e8       0x20 build/FrameworkWith_u8g2/production/u8g2/u8x8_input_value.o
 .debug_aranges
                0x00000708       0x20 build/FrameworkWith_u8g2/production/u8g2/u8x8_message.o
 .debug_aranges
                0x00000728       0x20 build/FrameworkWith_u8g2/production/u8g2/u8x8_selection_list.o
 .debug_aranges
                0x00000748       0x20 build/FrameworkWith_u8g2/production/u8g2/u8x8_setup.o
 .debug_aranges
                0x00000768       0x20 build/FrameworkWith_u8g2/production/u8g2/u8x8_string.o
 .debug_aranges
                0x00000788       0x20 build/FrameworkWith_u8g2/production/u8g2/u8x8_u16toa.o
 .debug_aranges
                0x000007a8       0x20 build/FrameworkWith_u8g2/production/u8g2/u8x8_u8toa.o
 .debug_aranges
                0x000007c8       0x20 /Applications/microchip/xc32/v2.50/bin/bin/../../lib/gcc/pic32mx/4.8.3/libgcc.a(floatunsidf.o)
 .debug_aranges
                0x000007e8       0x20 /Applications/microchip/xc32/v2.50/bin/bin/../../lib/gcc/pic32mx/4.8.3/../../../../pic32mx/lib/libpic32.a(default-bootstrap-exception-handler.o)
 .debug_aranges
                0x00000808       0x20 /Applications/microchip/xc32/v2.50/bin/bin/../../lib/gcc/pic32mx/4.8.3/../../../../pic32mx/lib/libpic32.a(default-on-reset.o)
 .debug_aranges
                0x00000828       0x20 /Applications/microchip/xc32/v2.50/bin/bin/../../lib/gcc/pic32mx/4.8.3/../../../../pic32mx/lib/libpic32.a(default-on-bootstrap.o)
 .debug_aranges
                0x00000848       0x20 /Applications/microchip/xc32/v2.50/bin/bin/../../lib/gcc/pic32mx/4.8.3/../../../../pic32mx/lib/libpic32.a(default-general-exception-handler.o)
 .debug_aranges
                0x00000868       0x20 /Applications/microchip/xc32/v2.50/bin/bin/../../lib/gcc/pic32mx/4.8.3/../../../../pic32mx/lib/libpic32.a(defaultinterrupt.o)
 .debug_aranges
                0x00000888       0x20 /Applications/microchip/xc32/v2.50/bin/bin/../../lib/gcc/pic32mx/4.8.3/../../../../pic32mx/lib/libm.a(w_sqrt.o)
 .debug_aranges
                0x000008a8       0x20 /Applications/microchip/xc32/v2.50/bin/bin/../../lib/gcc/pic32mx/4.8.3/libgcc.a(_udivdi3.o)
 .debug_aranges
                0x000008c8       0x20 /Applications/microchip/xc32/v2.50/bin/bin/../../lib/gcc/pic32mx/4.8.3/libgcc.a(_umoddi3.o)
 .debug_aranges
                0x000008e8       0x20 /Applications/microchip/xc32/v2.50/bin/bin/../../lib/gcc/pic32mx/4.8.3/../../../../pic32mx/lib/libpic32.a(_mon_getc.o)
 .debug_aranges
                0x00000908       0x20 /Applications/microchip/xc32/v2.50/bin/bin/../../lib/gcc/pic32mx/4.8.3/../../../../pic32mx/lib/libpic32.a(_mon_write.o)
 .debug_aranges
                0x00000928       0x20 /Applications/microchip/xc32/v2.50/bin/bin/../../lib/gcc/pic32mx/4.8.3/../../../../pic32mx/lib/libpic32.a(_mon_putc.o)

.debug_pubnames
 *(.debug_pubnames)

.debug_info     0x00000000    0x2f9d2
 *(.debug_info .gnu.linkonce.wi.*)
 .debug_info    0x00000000      0xbdf build/FrameworkWith_u8g2/production/FrameworkSource/ES_Port.o
 .debug_info    0x00000bdf      0x9ea build/FrameworkWith_u8g2/production/FrameworkSource/ES_Timers.o
 .debug_info    0x000015c9      0x282 build/FrameworkWith_u8g2/production/FrameworkSource/ES_LookupTables.o
 .debug_info    0x0000184b      0x243 build/FrameworkWith_u8g2/production/FrameworkSource/ES_CheckEvents.o
 .debug_info    0x00001a8e      0x3a5 build/FrameworkWith_u8g2/production/FrameworkSource/ES_DeferRecall.o
 .debug_info    0x00001e33      0xa93 build/FrameworkWith_u8g2/production/FrameworkSource/ES_Framework.o
 .debug_info    0x000028c6      0x530 build/FrameworkWith_u8g2/production/FrameworkSource/ES_Queue.o
 .debug_info    0x00002df6      0x473 build/FrameworkWith_u8g2/production/FrameworkSource/ES_PostList.o
 .debug_info    0x00003269      0xb50 build/FrameworkWith_u8g2/production/FrameworkSource/terminal.o
 .debug_info    0x00003db9      0x28d build/FrameworkWith_u8g2/production/ProjectSource/main.o
 .debug_info    0x00004046      0x8b1 build/FrameworkWith_u8g2/production/ProjectSource/EventCheckers.o
 .debug_info    0x000048f7      0x2d9 build/FrameworkWith_u8g2/production/ProjectSource/dbprintf.o
 .debug_info    0x00004bd0      0xb57 build/FrameworkWith_u8g2/production/ProjectSource/pinsHAL.o
 .debug_info    0x00005727      0x804 build/FrameworkWith_u8g2/production/ProjectSource/PIC32_AD_Lib.o
 .debug_info    0x00005f2b      0xa49 build/FrameworkWith_u8g2/production/ProjectSource/joystickHelpers.o
 .debug_info    0x00006974      0x7b7 build/FrameworkWith_u8g2/production/ProjectSource/spiHAL.o
 .debug_info    0x0000712b     0x11e6 build/FrameworkWith_u8g2/production/ProjectSource/OLEDService.o
 .debug_info    0x00008311     0x1ca4 build/FrameworkWith_u8g2/production/ProjectSource/Comms.o
 .debug_info    0x00009fb5      0xa37 build/FrameworkWith_u8g2/production/ProjectSource/CommsRx.o
 .debug_info    0x0000a9ec      0xadb build/FrameworkWith_u8g2/production/ProjectSource/CommsTx.o
 .debug_info    0x0000b4c7      0xbd5 build/FrameworkWith_u8g2/production/ProjectSource/OPAMP.o
 .debug_info    0x0000c09c      0x6c5 build/FrameworkWith_u8g2/production/ProjectSource/PackDataHandler.o
 .debug_info    0x0000c761     0x166b build/FrameworkWith_u8g2/production/ProjectSource/TVS.o
 .debug_info    0x0000ddcc     0x12c1 build/FrameworkWith_u8g2/production/ProjectSource/ZENER.o
 .debug_info    0x0000f08d      0xa2a build/FrameworkWith_u8g2/production/u8g2/spi_master.o
 .debug_info    0x0000fab7     0x11a2 build/FrameworkWith_u8g2/production/u8g2/u8g2_bitmap.o
 .debug_info    0x00010c59     0x109e build/FrameworkWith_u8g2/production/u8g2/u8g2_box.o
 .debug_info    0x00011cf7     0x1147 build/FrameworkWith_u8g2/production/u8g2/u8g2_buffer.o
 .debug_info    0x00012e3e     0x1599 build/FrameworkWith_u8g2/production/u8g2/u8g2_circle.o
 .debug_info    0x000143d7      0xe6e build/FrameworkWith_u8g2/production/u8g2/u8g2_cleardisplay.o
 .debug_info    0x00015245      0x21c build/FrameworkWith_u8g2/production/u8g2/u8g2_d_memory.o
 .debug_info    0x00015461      0xf2f build/FrameworkWith_u8g2/production/u8g2/u8g2_d_setup.o
 .debug_info    0x00016390     0x222d build/FrameworkWith_u8g2/production/u8g2/u8g2_font.o
 .debug_info    0x000185bd      0x27d build/FrameworkWith_u8g2/production/u8g2/u8g2_fonts.o
 .debug_info    0x0001883a     0x10c7 build/FrameworkWith_u8g2/production/u8g2/u8g2_hvline.o
 .debug_info    0x00019901      0xf89 build/FrameworkWith_u8g2/production/u8g2/u8g2_input_value.o
 .debug_info    0x0001a88a      0xf18 build/FrameworkWith_u8g2/production/u8g2/u8g2_intersection.o
 .debug_info    0x0001b7a2     0x1030 build/FrameworkWith_u8g2/production/u8g2/u8g2_kerning.o
 .debug_info    0x0001c7d2      0xf17 build/FrameworkWith_u8g2/production/u8g2/u8g2_line.o
 .debug_info    0x0001d6e9      0xfd5 build/FrameworkWith_u8g2/production/u8g2/u8g2_ll_hvline.o
 .debug_info    0x0001e6be     0x101f build/FrameworkWith_u8g2/production/u8g2/u8g2_message.o
 .debug_info    0x0001f6dd      0x90b build/FrameworkWith_u8g2/production/u8g2/u8g2_pic32mz.o
 .debug_info    0x0001ffe8     0x156c build/FrameworkWith_u8g2/production/u8g2/u8g2_polygon.o
 .debug_info    0x00021554     0x125d build/FrameworkWith_u8g2/production/u8g2/u8g2_selection_list.o
 .debug_info    0x000227b1     0x15b0 build/FrameworkWith_u8g2/production/u8g2/u8g2_setup.o
 .debug_info    0x00023d61      0x7d3 build/FrameworkWith_u8g2/production/u8g2/u8log.o
 .debug_info    0x00024534     0x10ae build/FrameworkWith_u8g2/production/u8g2/u8log_u8g2.o
 .debug_info    0x000255e2      0x943 build/FrameworkWith_u8g2/production/u8g2/u8log_u8x8.o
 .debug_info    0x00025f25     0x102f build/FrameworkWith_u8g2/production/u8g2/u8x8_8x8.o
 .debug_info    0x00026f54      0xee8 build/FrameworkWith_u8g2/production/u8g2/u8x8_byte.o
 .debug_info    0x00027e3c      0xf1d build/FrameworkWith_u8g2/production/u8g2/u8x8_cad.o
 .debug_info    0x00028d59      0xcab build/FrameworkWith_u8g2/production/u8g2/u8x8_d_ssd1306_128x64_noname.o
 .debug_info    0x00029a04      0x771 build/FrameworkWith_u8g2/production/u8g2/u8x8_debounce.o
 .debug_info    0x0002a175      0xaa2 build/FrameworkWith_u8g2/production/u8g2/u8x8_display.o
 .debug_info    0x0002ac17      0x145 build/FrameworkWith_u8g2/production/u8g2/u8x8_fonts.o
 .debug_info    0x0002ad5c      0x6aa build/FrameworkWith_u8g2/production/u8g2/u8x8_gpio.o
 .debug_info    0x0002b406      0x799 build/FrameworkWith_u8g2/production/u8g2/u8x8_input_value.o
 .debug_info    0x0002bb9f      0x800 build/FrameworkWith_u8g2/production/u8g2/u8x8_message.o
 .debug_info    0x0002c39f      0x947 build/FrameworkWith_u8g2/production/u8g2/u8x8_selection_list.o
 .debug_info    0x0002cce6      0x7e5 build/FrameworkWith_u8g2/production/u8g2/u8x8_setup.o
 .debug_info    0x0002d4cb      0x8aa build/FrameworkWith_u8g2/production/u8g2/u8x8_string.o
 .debug_info    0x0002dd75      0x25b build/FrameworkWith_u8g2/production/u8g2/u8x8_u16toa.o
 .debug_info    0x0002dfd0      0x277 build/FrameworkWith_u8g2/production/u8g2/u8x8_u8toa.o
 .debug_info    0x0002e247      0x137 /Applications/microchip/xc32/v2.50/bin/bin/../../lib/gcc/pic32mx/4.8.3/libgcc.a(floatunsidf.o)
 .debug_info    0x0002e37e       0xf4 /Applications/microchip/xc32/v2.50/bin/bin/../../lib/gcc/pic32mx/4.8.3/../../../../pic32mx/lib/libpic32.a(default-bootstrap-exception-handler.o)
 .debug_info    0x0002e472       0xcd /Applications/microchip/xc32/v2.50/bin/bin/../../lib/gcc/pic32mx/4.8.3/../../../../pic32mx/lib/libpic32.a(default-on-reset.o)
 .debug_info    0x0002e53f       0xd5 /Applications/microchip/xc32/v2.50/bin/bin/../../lib/gcc/pic32mx/4.8.3/../../../../pic32mx/lib/libpic32.a(default-on-bootstrap.o)
 .debug_info    0x0002e614       0xf0 /Applications/microchip/xc32/v2.50/bin/bin/../../lib/gcc/pic32mx/4.8.3/../../../../pic32mx/lib/libpic32.a(default-general-exception-handler.o)
 .debug_info    0x0002e704       0xe7 /Applications/microchip/xc32/v2.50/bin/bin/../../lib/gcc/pic32mx/4.8.3/../../../../pic32mx/lib/libpic32.a(defaultinterrupt.o)
 .debug_info    0x0002e7eb       0xbd /Applications/microchip/xc32/v2.50/bin/bin/../../lib/gcc/pic32mx/4.8.3/../../../../pic32mx/lib/libm.a(w_sqrt.o)
 .debug_info    0x0002e8a8      0x74b /Applications/microchip/xc32/v2.50/bin/bin/../../lib/gcc/pic32mx/4.8.3/libgcc.a(_udivdi3.o)
 .debug_info    0x0002eff3      0x788 /Applications/microchip/xc32/v2.50/bin/bin/../../lib/gcc/pic32mx/4.8.3/libgcc.a(_umoddi3.o)
 .debug_info    0x0002f77b       0xc7 /Applications/microchip/xc32/v2.50/bin/bin/../../lib/gcc/pic32mx/4.8.3/../../../../pic32mx/lib/libpic32.a(_mon_getc.o)
 .debug_info    0x0002f842       0xc9 /Applications/microchip/xc32/v2.50/bin/bin/../../lib/gcc/pic32mx/4.8.3/../../../../pic32mx/lib/libpic32.a(_mon_write.o)
 .debug_info    0x0002f90b       0xc7 /Applications/microchip/xc32/v2.50/bin/bin/../../lib/gcc/pic32mx/4.8.3/../../../../pic32mx/lib/libpic32.a(_mon_putc.o)

.debug_abbrev   0x00000000     0x4d4c
 *(.debug_abbrev)
 .debug_abbrev  0x00000000      0x15d build/FrameworkWith_u8g2/production/FrameworkSource/ES_Port.o
 .debug_abbrev  0x0000015d      0x16e build/FrameworkWith_u8g2/production/FrameworkSource/ES_Timers.o
 .debug_abbrev  0x000002cb       0x90 build/FrameworkWith_u8g2/production/FrameworkSource/ES_LookupTables.o
 .debug_abbrev  0x0000035b       0x98 build/FrameworkWith_u8g2/production/FrameworkSource/ES_CheckEvents.o
 .debug_abbrev  0x000003f3       0xb0 build/FrameworkWith_u8g2/production/FrameworkSource/ES_DeferRecall.o
 .debug_abbrev  0x000004a3      0x14b build/FrameworkWith_u8g2/production/FrameworkSource/ES_Framework.o
 .debug_abbrev  0x000005ee       0xf5 build/FrameworkWith_u8g2/production/FrameworkSource/ES_Queue.o
 .debug_abbrev  0x000006e3       0x8b build/FrameworkWith_u8g2/production/FrameworkSource/ES_PostList.o
 .debug_abbrev  0x0000076e       0xf6 build/FrameworkWith_u8g2/production/FrameworkSource/terminal.o
 .debug_abbrev  0x00000864       0x69 build/FrameworkWith_u8g2/production/ProjectSource/main.o
 .debug_abbrev  0x000008cd      0x112 build/FrameworkWith_u8g2/production/ProjectSource/EventCheckers.o
 .debug_abbrev  0x000009df       0xca build/FrameworkWith_u8g2/production/ProjectSource/dbprintf.o
 .debug_abbrev  0x00000aa9      0x107 build/FrameworkWith_u8g2/production/ProjectSource/pinsHAL.o
 .debug_abbrev  0x00000bb0       0xed build/FrameworkWith_u8g2/production/ProjectSource/PIC32_AD_Lib.o
 .debug_abbrev  0x00000c9d      0x144 build/FrameworkWith_u8g2/production/ProjectSource/joystickHelpers.o
 .debug_abbrev  0x00000de1      0x114 build/FrameworkWith_u8g2/production/ProjectSource/spiHAL.o
 .debug_abbrev  0x00000ef5      0x164 build/FrameworkWith_u8g2/production/ProjectSource/OLEDService.o
 .debug_abbrev  0x00001059      0x1f5 build/FrameworkWith_u8g2/production/ProjectSource/Comms.o
 .debug_abbrev  0x0000124e      0x146 build/FrameworkWith_u8g2/production/ProjectSource/CommsRx.o
 .debug_abbrev  0x00001394      0x186 build/FrameworkWith_u8g2/production/ProjectSource/CommsTx.o
 .debug_abbrev  0x0000151a      0x1a4 build/FrameworkWith_u8g2/production/ProjectSource/OPAMP.o
 .debug_abbrev  0x000016be       0x9a build/FrameworkWith_u8g2/production/ProjectSource/PackDataHandler.o
 .debug_abbrev  0x00001758      0x1e3 build/FrameworkWith_u8g2/production/ProjectSource/TVS.o
 .debug_abbrev  0x0000193b      0x1f5 build/FrameworkWith_u8g2/production/ProjectSource/ZENER.o
 .debug_abbrev  0x00001b30      0x10e build/FrameworkWith_u8g2/production/u8g2/spi_master.o
 .debug_abbrev  0x00001c3e      0x14d build/FrameworkWith_u8g2/production/u8g2/u8g2_bitmap.o
 .debug_abbrev  0x00001d8b      0x129 build/FrameworkWith_u8g2/production/u8g2/u8g2_box.o
 .debug_abbrev  0x00001eb4      0x158 build/FrameworkWith_u8g2/production/u8g2/u8g2_buffer.o
 .debug_abbrev  0x0000200c      0x19b build/FrameworkWith_u8g2/production/u8g2/u8g2_circle.o
 .debug_abbrev  0x000021a7       0xec build/FrameworkWith_u8g2/production/u8g2/u8g2_cleardisplay.o
 .debug_abbrev  0x00002293       0x91 build/FrameworkWith_u8g2/production/u8g2/u8g2_d_memory.o
 .debug_abbrev  0x00002324      0x133 build/FrameworkWith_u8g2/production/u8g2/u8g2_d_setup.o
 .debug_abbrev  0x00002457      0x282 build/FrameworkWith_u8g2/production/u8g2/u8g2_font.o
 .debug_abbrev  0x000026d9       0x5b build/FrameworkWith_u8g2/production/u8g2/u8g2_fonts.o
 .debug_abbrev  0x00002734      0x13e build/FrameworkWith_u8g2/production/u8g2/u8g2_hvline.o
 .debug_abbrev  0x00002872      0x10e build/FrameworkWith_u8g2/production/u8g2/u8g2_input_value.o
 .debug_abbrev  0x00002980      0x10a build/FrameworkWith_u8g2/production/u8g2/u8g2_intersection.o
 .debug_abbrev  0x00002a8a      0x119 build/FrameworkWith_u8g2/production/u8g2/u8g2_kerning.o
 .debug_abbrev  0x00002ba3       0xfb build/FrameworkWith_u8g2/production/u8g2/u8g2_line.o
 .debug_abbrev  0x00002c9e      0x124 build/FrameworkWith_u8g2/production/u8g2/u8g2_ll_hvline.o
 .debug_abbrev  0x00002dc2      0x128 build/FrameworkWith_u8g2/production/u8g2/u8g2_message.o
 .debug_abbrev  0x00002eea      0x136 build/FrameworkWith_u8g2/production/u8g2/u8g2_pic32mz.o
 .debug_abbrev  0x00003020      0x208 build/FrameworkWith_u8g2/production/u8g2/u8g2_polygon.o
 .debug_abbrev  0x00003228      0x16b build/FrameworkWith_u8g2/production/u8g2/u8g2_selection_list.o
 .debug_abbrev  0x00003393      0x1b5 build/FrameworkWith_u8g2/production/u8g2/u8g2_setup.o
 .debug_abbrev  0x00003548      0x154 build/FrameworkWith_u8g2/production/u8g2/u8log.o
 .debug_abbrev  0x0000369c      0x115 build/FrameworkWith_u8g2/production/u8g2/u8log_u8g2.o
 .debug_abbrev  0x000037b1      0x10f build/FrameworkWith_u8g2/production/u8g2/u8log_u8x8.o
 .debug_abbrev  0x000038c0      0x212 build/FrameworkWith_u8g2/production/u8g2/u8x8_8x8.o
 .debug_abbrev  0x00003ad2      0x1a9 build/FrameworkWith_u8g2/production/u8g2/u8x8_byte.o
 .debug_abbrev  0x00003c7b      0x19e build/FrameworkWith_u8g2/production/u8g2/u8x8_cad.o
 .debug_abbrev  0x00003e19      0x133 build/FrameworkWith_u8g2/production/u8g2/u8x8_d_ssd1306_128x64_noname.o
 .debug_abbrev  0x00003f4c      0x10c build/FrameworkWith_u8g2/production/u8g2/u8x8_debounce.o
 .debug_abbrev  0x00004058      0x156 build/FrameworkWith_u8g2/production/u8g2/u8x8_display.o
 .debug_abbrev  0x000041ae       0x1b build/FrameworkWith_u8g2/production/u8g2/u8x8_fonts.o
 .debug_abbrev  0x000041c9       0xb8 build/FrameworkWith_u8g2/production/u8g2/u8x8_gpio.o
 .debug_abbrev  0x00004281       0xcb build/FrameworkWith_u8g2/production/u8g2/u8x8_input_value.o
 .debug_abbrev  0x0000434c       0xe5 build/FrameworkWith_u8g2/production/u8g2/u8x8_message.o
 .debug_abbrev  0x00004431      0x118 build/FrameworkWith_u8g2/production/u8g2/u8x8_selection_list.o
 .debug_abbrev  0x00004549      0x139 build/FrameworkWith_u8g2/production/u8g2/u8x8_setup.o
 .debug_abbrev  0x00004682      0x139 build/FrameworkWith_u8g2/production/u8g2/u8x8_string.o
 .debug_abbrev  0x000047bb       0xa4 build/FrameworkWith_u8g2/production/u8g2/u8x8_u16toa.o
 .debug_abbrev  0x0000485f       0xa4 build/FrameworkWith_u8g2/production/u8g2/u8x8_u8toa.o
 .debug_abbrev  0x00004903       0x62 /Applications/microchip/xc32/v2.50/bin/bin/../../lib/gcc/pic32mx/4.8.3/libgcc.a(floatunsidf.o)
 .debug_abbrev  0x00004965       0x28 /Applications/microchip/xc32/v2.50/bin/bin/../../lib/gcc/pic32mx/4.8.3/../../../../pic32mx/lib/libpic32.a(default-bootstrap-exception-handler.o)
 .debug_abbrev  0x0000498d       0x28 /Applications/microchip/xc32/v2.50/bin/bin/../../lib/gcc/pic32mx/4.8.3/../../../../pic32mx/lib/libpic32.a(default-on-reset.o)
 .debug_abbrev  0x000049b5       0x28 /Applications/microchip/xc32/v2.50/bin/bin/../../lib/gcc/pic32mx/4.8.3/../../../../pic32mx/lib/libpic32.a(default-on-bootstrap.o)
 .debug_abbrev  0x000049dd       0x28 /Applications/microchip/xc32/v2.50/bin/bin/../../lib/gcc/pic32mx/4.8.3/../../../../pic32mx/lib/libpic32.a(default-general-exception-handler.o)
 .debug_abbrev  0x00004a05       0x28 /Applications/microchip/xc32/v2.50/bin/bin/../../lib/gcc/pic32mx/4.8.3/../../../../pic32mx/lib/libpic32.a(defaultinterrupt.o)
 .debug_abbrev  0x00004a2d       0x28 /Applications/microchip/xc32/v2.50/bin/bin/../../lib/gcc/pic32mx/4.8.3/../../../../pic32mx/lib/libm.a(w_sqrt.o)
 .debug_abbrev  0x00004a55      0x138 /Applications/microchip/xc32/v2.50/bin/bin/../../lib/gcc/pic32mx/4.8.3/libgcc.a(_udivdi3.o)
 .debug_abbrev  0x00004b8d      0x147 /Applications/microchip/xc32/v2.50/bin/bin/../../lib/gcc/pic32mx/4.8.3/libgcc.a(_umoddi3.o)
 .debug_abbrev  0x00004cd4       0x28 /Applications/microchip/xc32/v2.50/bin/bin/../../lib/gcc/pic32mx/4.8.3/../../../../pic32mx/lib/libpic32.a(_mon_getc.o)
 .debug_abbrev  0x00004cfc       0x28 /Applications/microchip/xc32/v2.50/bin/bin/../../lib/gcc/pic32mx/4.8.3/../../../../pic32mx/lib/libpic32.a(_mon_write.o)
 .debug_abbrev  0x00004d24       0x28 /Applications/microchip/xc32/v2.50/bin/bin/../../lib/gcc/pic32mx/4.8.3/../../../../pic32mx/lib/libpic32.a(_mon_putc.o)

.debug_line     0x00000000     0x88cc
 *(.debug_line)
 .debug_line    0x00000000      0x21e build/FrameworkWith_u8g2/production/FrameworkSource/ES_Port.o
 .debug_line    0x0000021e      0x2a7 build/FrameworkWith_u8g2/production/FrameworkSource/ES_Timers.o
 .debug_line    0x000004c5      0x10b build/FrameworkWith_u8g2/production/FrameworkSource/ES_LookupTables.o
 .debug_line    0x000005d0      0x1e9 build/FrameworkWith_u8g2/production/FrameworkSource/ES_CheckEvents.o
 .debug_line    0x000007b9      0x188 build/FrameworkWith_u8g2/production/FrameworkSource/ES_DeferRecall.o
 .debug_line    0x00000941      0x2af build/FrameworkWith_u8g2/production/FrameworkSource/ES_Framework.o
 .debug_line    0x00000bf0      0x1cd build/FrameworkWith_u8g2/production/FrameworkSource/ES_Queue.o
 .debug_line    0x00000dbd       0xfd build/FrameworkWith_u8g2/production/FrameworkSource/ES_PostList.o
 .debug_line    0x00000eba      0x1f0 build/FrameworkWith_u8g2/production/FrameworkSource/terminal.o
 .debug_line    0x000010aa      0x137 build/FrameworkWith_u8g2/production/ProjectSource/main.o
 .debug_line    0x000011e1      0x295 build/FrameworkWith_u8g2/production/ProjectSource/EventCheckers.o
 .debug_line    0x00001476      0x14b build/FrameworkWith_u8g2/production/ProjectSource/dbprintf.o
 .debug_line    0x000015c1      0x3d8 build/FrameworkWith_u8g2/production/ProjectSource/pinsHAL.o
 .debug_line    0x00001999      0x189 build/FrameworkWith_u8g2/production/ProjectSource/PIC32_AD_Lib.o
 .debug_line    0x00001b22      0x259 build/FrameworkWith_u8g2/production/ProjectSource/joystickHelpers.o
 .debug_line    0x00001d7b      0x1b2 build/FrameworkWith_u8g2/production/ProjectSource/spiHAL.o
 .debug_line    0x00001f2d      0x2a3 build/FrameworkWith_u8g2/production/ProjectSource/OLEDService.o
 .debug_line    0x000021d0      0x40e build/FrameworkWith_u8g2/production/ProjectSource/Comms.o
 .debug_line    0x000025de      0x2e1 build/FrameworkWith_u8g2/production/ProjectSource/CommsRx.o
 .debug_line    0x000028bf      0x2bc build/FrameworkWith_u8g2/production/ProjectSource/CommsTx.o
 .debug_line    0x00002b7b      0x31f build/FrameworkWith_u8g2/production/ProjectSource/OPAMP.o
 .debug_line    0x00002e9a      0x1f8 build/FrameworkWith_u8g2/production/ProjectSource/PackDataHandler.o
 .debug_line    0x00003092      0x376 build/FrameworkWith_u8g2/production/ProjectSource/TVS.o
 .debug_line    0x00003408      0x3cc build/FrameworkWith_u8g2/production/ProjectSource/ZENER.o
 .debug_line    0x000037d4      0x185 build/FrameworkWith_u8g2/production/u8g2/spi_master.o
 .debug_line    0x00003959      0x209 build/FrameworkWith_u8g2/production/u8g2/u8g2_bitmap.o
 .debug_line    0x00003b62      0x1f3 build/FrameworkWith_u8g2/production/u8g2/u8g2_box.o
 .debug_line    0x00003d55      0x20f build/FrameworkWith_u8g2/production/u8g2/u8g2_buffer.o
 .debug_line    0x00003f64      0x311 build/FrameworkWith_u8g2/production/u8g2/u8g2_circle.o
 .debug_line    0x00004275      0x16b build/FrameworkWith_u8g2/production/u8g2/u8g2_cleardisplay.o
 .debug_line    0x000043e0       0xf4 build/FrameworkWith_u8g2/production/u8g2/u8g2_d_memory.o
 .debug_line    0x000044d4      0x177 build/FrameworkWith_u8g2/production/u8g2/u8g2_d_setup.o
 .debug_line    0x0000464b      0x4d1 build/FrameworkWith_u8g2/production/u8g2/u8g2_font.o
 .debug_line    0x00004b1c       0xd8 build/FrameworkWith_u8g2/production/u8g2/u8g2_fonts.o
 .debug_line    0x00004bf4      0x1e3 build/FrameworkWith_u8g2/production/u8g2/u8g2_hvline.o
 .debug_line    0x00004dd7      0x1ab build/FrameworkWith_u8g2/production/u8g2/u8g2_input_value.o
 .debug_line    0x00004f82      0x183 build/FrameworkWith_u8g2/production/u8g2/u8g2_intersection.o
 .debug_line    0x00005105      0x193 build/FrameworkWith_u8g2/production/u8g2/u8g2_kerning.o
 .debug_line    0x00005298      0x18e build/FrameworkWith_u8g2/production/u8g2/u8g2_line.o
 .debug_line    0x00005426      0x1c6 build/FrameworkWith_u8g2/production/u8g2/u8g2_ll_hvline.o
 .debug_line    0x000055ec      0x1ce build/FrameworkWith_u8g2/production/u8g2/u8g2_message.o
 .debug_line    0x000057ba      0x1e8 build/FrameworkWith_u8g2/production/u8g2/u8g2_pic32mz.o
 .debug_line    0x000059a2      0x26c build/FrameworkWith_u8g2/production/u8g2/u8g2_polygon.o
 .debug_line    0x00005c0e      0x213 build/FrameworkWith_u8g2/production/u8g2/u8g2_selection_list.o
 .debug_line    0x00005e21      0x26a build/FrameworkWith_u8g2/production/u8g2/u8g2_setup.o
 .debug_line    0x0000608b      0x20e build/FrameworkWith_u8g2/production/u8g2/u8log.o
 .debug_line    0x00006299      0x188 build/FrameworkWith_u8g2/production/u8g2/u8log_u8g2.o
 .debug_line    0x00006421      0x178 build/FrameworkWith_u8g2/production/u8g2/u8log_u8x8.o
 .debug_line    0x00006599      0x2d6 build/FrameworkWith_u8g2/production/u8g2/u8x8_8x8.o
 .debug_line    0x0000686f      0x36c build/FrameworkWith_u8g2/production/u8g2/u8x8_byte.o
 .debug_line    0x00006bdb      0x3b6 build/FrameworkWith_u8g2/production/u8g2/u8x8_cad.o
 .debug_line    0x00006f91      0x21b build/FrameworkWith_u8g2/production/u8g2/u8x8_d_ssd1306_128x64_noname.o
 .debug_line    0x000071ac      0x19f build/FrameworkWith_u8g2/production/u8g2/u8x8_debounce.o
 .debug_line    0x0000734b      0x1cf build/FrameworkWith_u8g2/production/u8g2/u8x8_display.o
 .debug_line    0x0000751a       0x1d build/FrameworkWith_u8g2/production/u8g2/u8x8_fonts.o
 .debug_line    0x00007537      0x157 build/FrameworkWith_u8g2/production/u8g2/u8x8_gpio.o
 .debug_line    0x0000768e      0x19b build/FrameworkWith_u8g2/production/u8g2/u8x8_input_value.o
 .debug_line    0x00007829      0x1bb build/FrameworkWith_u8g2/production/u8g2/u8x8_message.o
 .debug_line    0x000079e4      0x1c9 build/FrameworkWith_u8g2/production/u8g2/u8x8_selection_list.o
 .debug_line    0x00007bad      0x184 build/FrameworkWith_u8g2/production/u8g2/u8x8_setup.o
 .debug_line    0x00007d31      0x1bc build/FrameworkWith_u8g2/production/u8g2/u8x8_string.o
 .debug_line    0x00007eed      0x105 build/FrameworkWith_u8g2/production/u8g2/u8x8_u16toa.o
 .debug_line    0x00007ff2      0x103 build/FrameworkWith_u8g2/production/u8g2/u8x8_u8toa.o
 .debug_line    0x000080f5       0x93 /Applications/microchip/xc32/v2.50/bin/bin/../../lib/gcc/pic32mx/4.8.3/libgcc.a(floatunsidf.o)
 .debug_line    0x00008188       0xa6 /Applications/microchip/xc32/v2.50/bin/bin/../../lib/gcc/pic32mx/4.8.3/../../../../pic32mx/lib/libpic32.a(default-bootstrap-exception-handler.o)
 .debug_line    0x0000822e       0x93 /Applications/microchip/xc32/v2.50/bin/bin/../../lib/gcc/pic32mx/4.8.3/../../../../pic32mx/lib/libpic32.a(default-on-reset.o)
 .debug_line    0x000082c1       0x97 /Applications/microchip/xc32/v2.50/bin/bin/../../lib/gcc/pic32mx/4.8.3/../../../../pic32mx/lib/libpic32.a(default-on-bootstrap.o)
 .debug_line    0x00008358        0x0 /Applications/microchip/xc32/v2.50/bin/bin/../../lib/gcc/pic32mx/4.8.3/../../../../pic32mx/lib/libpic32.a(xc32_uart.o)
 .debug_line    0x00008358       0xa4 /Applications/microchip/xc32/v2.50/bin/bin/../../lib/gcc/pic32mx/4.8.3/../../../../pic32mx/lib/libpic32.a(default-general-exception-handler.o)
 .debug_line    0x000083fc       0xa5 /Applications/microchip/xc32/v2.50/bin/bin/../../lib/gcc/pic32mx/4.8.3/../../../../pic32mx/lib/libpic32.a(defaultinterrupt.o)
 .debug_line    0x000084a1       0x86 /Applications/microchip/xc32/v2.50/bin/bin/../../lib/gcc/pic32mx/4.8.3/../../../../pic32mx/lib/libm.a(w_sqrt.o)
 .debug_line    0x00008527        0x0 /Applications/microchip/xc32/v2.50/bin/bin/../../lib/gcc/pic32mx/4.8.3/../../../../pic32mx/lib/libm.a(s_lib_ver.o)
 .debug_line    0x00008527       0xf7 /Applications/microchip/xc32/v2.50/bin/bin/../../lib/gcc/pic32mx/4.8.3/libgcc.a(_udivdi3.o)
 .debug_line    0x0000861e      0x109 /Applications/microchip/xc32/v2.50/bin/bin/../../lib/gcc/pic32mx/4.8.3/libgcc.a(_umoddi3.o)
 .debug_line    0x00008727       0x8c /Applications/microchip/xc32/v2.50/bin/bin/../../lib/gcc/pic32mx/4.8.3/../../../../pic32mx/lib/libpic32.a(_mon_getc.o)
 .debug_line    0x000087b3       0x8d /Applications/microchip/xc32/v2.50/bin/bin/../../lib/gcc/pic32mx/4.8.3/../../../../pic32mx/lib/libpic32.a(_mon_write.o)
 .debug_line    0x00008840       0x8c /Applications/microchip/xc32/v2.50/bin/bin/../../lib/gcc/pic32mx/4.8.3/../../../../pic32mx/lib/libpic32.a(_mon_putc.o)

.debug_frame    0x00000000     0x3b54
 *(.debug_frame)
 .debug_frame   0x00000000       0xec build/FrameworkWith_u8g2/production/FrameworkSource/ES_Port.o
 .debug_frame   0x000000ec       0xfc build/FrameworkWith_u8g2/production/FrameworkSource/ES_Timers.o
 .debug_frame   0x000001e8       0x30 build/FrameworkWith_u8g2/production/FrameworkSource/ES_LookupTables.o
 .debug_frame   0x00000218       0x34 build/FrameworkWith_u8g2/production/FrameworkSource/ES_CheckEvents.o
 .debug_frame   0x0000024c       0x34 build/FrameworkWith_u8g2/production/FrameworkSource/ES_DeferRecall.o
 .debug_frame   0x00000280       0xc4 build/FrameworkWith_u8g2/production/FrameworkSource/ES_Framework.o
 .debug_frame   0x00000344       0xbc build/FrameworkWith_u8g2/production/FrameworkSource/ES_Queue.o
 .debug_frame   0x00000400       0x94 build/FrameworkWith_u8g2/production/FrameworkSource/terminal.o
 .debug_frame   0x00000494       0x2c build/FrameworkWith_u8g2/production/ProjectSource/main.o
 .debug_frame   0x000004c0       0x34 build/FrameworkWith_u8g2/production/ProjectSource/EventCheckers.o
 .debug_frame   0x000004f4       0x58 build/FrameworkWith_u8g2/production/ProjectSource/dbprintf.o
 .debug_frame   0x0000054c       0x7c build/FrameworkWith_u8g2/production/ProjectSource/pinsHAL.o
 .debug_frame   0x000005c8       0x50 build/FrameworkWith_u8g2/production/ProjectSource/PIC32_AD_Lib.o
 .debug_frame   0x00000618       0x58 build/FrameworkWith_u8g2/production/ProjectSource/joystickHelpers.o
 .debug_frame   0x00000670       0xb4 build/FrameworkWith_u8g2/production/ProjectSource/spiHAL.o
 .debug_frame   0x00000724       0x80 build/FrameworkWith_u8g2/production/ProjectSource/OLEDService.o
 .debug_frame   0x000007a4      0x1a4 build/FrameworkWith_u8g2/production/ProjectSource/Comms.o
 .debug_frame   0x00000948       0xa0 build/FrameworkWith_u8g2/production/ProjectSource/CommsRx.o
 .debug_frame   0x000009e8      0x130 build/FrameworkWith_u8g2/production/ProjectSource/CommsTx.o
 .debug_frame   0x00000b18       0x9c build/FrameworkWith_u8g2/production/ProjectSource/OPAMP.o
 .debug_frame   0x00000bb4       0xe8 build/FrameworkWith_u8g2/production/ProjectSource/PackDataHandler.o
 .debug_frame   0x00000c9c      0x12c build/FrameworkWith_u8g2/production/ProjectSource/TVS.o
 .debug_frame   0x00000dc8      0x218 build/FrameworkWith_u8g2/production/ProjectSource/ZENER.o
 .debug_frame   0x00000fe0       0x78 build/FrameworkWith_u8g2/production/u8g2/spi_master.o
 .debug_frame   0x00001058      0x108 build/FrameworkWith_u8g2/production/u8g2/u8g2_bitmap.o
 .debug_frame   0x00001160       0xa0 build/FrameworkWith_u8g2/production/u8g2/u8g2_box.o
 .debug_frame   0x00001200      0x154 build/FrameworkWith_u8g2/production/u8g2/u8g2_buffer.o
 .debug_frame   0x00001354      0x1c0 build/FrameworkWith_u8g2/production/u8g2/u8g2_circle.o
 .debug_frame   0x00001514       0x34 build/FrameworkWith_u8g2/production/u8g2/u8g2_cleardisplay.o
 .debug_frame   0x00001548       0x50 build/FrameworkWith_u8g2/production/u8g2/u8g2_d_memory.o
 .debug_frame   0x00001598       0x58 build/FrameworkWith_u8g2/production/u8g2/u8g2_d_setup.o
 .debug_frame   0x000015f0      0x6c8 build/FrameworkWith_u8g2/production/u8g2/u8g2_font.o
 .debug_frame   0x00001cb8      0x108 build/FrameworkWith_u8g2/production/u8g2/u8g2_hvline.o
 .debug_frame   0x00001dc0       0x34 build/FrameworkWith_u8g2/production/u8g2/u8g2_input_value.o
 .debug_frame   0x00001df4       0x54 build/FrameworkWith_u8g2/production/u8g2/u8g2_intersection.o
 .debug_frame   0x00001e48       0x54 build/FrameworkWith_u8g2/production/u8g2/u8g2_kerning.o
 .debug_frame   0x00001e9c       0x34 build/FrameworkWith_u8g2/production/u8g2/u8g2_line.o
 .debug_frame   0x00001ed0       0x58 build/FrameworkWith_u8g2/production/u8g2/u8g2_ll_hvline.o
 .debug_frame   0x00001f28       0x58 build/FrameworkWith_u8g2/production/u8g2/u8g2_message.o
 .debug_frame   0x00001f80       0x58 build/FrameworkWith_u8g2/production/u8g2/u8g2_pic32mz.o
 .debug_frame   0x00001fd8      0x240 build/FrameworkWith_u8g2/production/u8g2/u8g2_polygon.o
 .debug_frame   0x00002218       0xc4 build/FrameworkWith_u8g2/production/u8g2/u8g2_selection_list.o
 .debug_frame   0x000022dc      0x2e0 build/FrameworkWith_u8g2/production/u8g2/u8g2_setup.o
 .debug_frame   0x000025bc      0x260 build/FrameworkWith_u8g2/production/u8g2/u8log.o
 .debug_frame   0x0000281c       0x58 build/FrameworkWith_u8g2/production/u8g2/u8log_u8g2.o
 .debug_frame   0x00002874       0x7c build/FrameworkWith_u8g2/production/u8g2/u8log_u8x8.o
 .debug_frame   0x000028f0      0x314 build/FrameworkWith_u8g2/production/u8g2/u8x8_8x8.o
 .debug_frame   0x00002c04      0x390 build/FrameworkWith_u8g2/production/u8g2/u8x8_byte.o
 .debug_frame   0x00002f94      0x304 build/FrameworkWith_u8g2/production/u8g2/u8x8_cad.o
 .debug_frame   0x00003298      0x10c build/FrameworkWith_u8g2/production/u8g2/u8x8_d_ssd1306_128x64_noname.o
 .debug_frame   0x000033a4       0x78 build/FrameworkWith_u8g2/production/u8g2/u8x8_debounce.o
 .debug_frame   0x0000341c      0x1e0 build/FrameworkWith_u8g2/production/u8g2/u8x8_display.o
 .debug_frame   0x000035fc       0x34 build/FrameworkWith_u8g2/production/u8g2/u8x8_gpio.o
 .debug_frame   0x00003630       0x34 build/FrameworkWith_u8g2/production/u8g2/u8x8_input_value.o
 .debug_frame   0x00003664       0x58 build/FrameworkWith_u8g2/production/u8g2/u8x8_message.o
 .debug_frame   0x000036bc       0xbc build/FrameworkWith_u8g2/production/u8g2/u8x8_selection_list.o
 .debug_frame   0x00003778       0x98 build/FrameworkWith_u8g2/production/u8g2/u8x8_setup.o
 .debug_frame   0x00003810       0xbc build/FrameworkWith_u8g2/production/u8g2/u8x8_string.o
 .debug_frame   0x000038cc       0x54 build/FrameworkWith_u8g2/production/u8g2/u8x8_u16toa.o
 .debug_frame   0x00003920       0x54 build/FrameworkWith_u8g2/production/u8g2/u8x8_u8toa.o
 .debug_frame   0x00003974       0x2c /Applications/microchip/xc32/v2.50/bin/bin/../../lib/gcc/pic32mx/4.8.3/libgcc.a(floatunsidf.o)
 .debug_frame   0x000039a0       0x2c /Applications/microchip/xc32/v2.50/bin/bin/../../lib/gcc/pic32mx/4.8.3/../../../../pic32mx/lib/libpic32.a(default-bootstrap-exception-handler.o)
 .debug_frame   0x000039cc       0x20 /Applications/microchip/xc32/v2.50/bin/bin/../../lib/gcc/pic32mx/4.8.3/../../../../pic32mx/lib/libpic32.a(default-on-reset.o)
 .debug_frame   0x000039ec       0x20 /Applications/microchip/xc32/v2.50/bin/bin/../../lib/gcc/pic32mx/4.8.3/../../../../pic32mx/lib/libpic32.a(default-on-bootstrap.o)
 .debug_frame   0x00003a0c       0x2c /Applications/microchip/xc32/v2.50/bin/bin/../../lib/gcc/pic32mx/4.8.3/../../../../pic32mx/lib/libpic32.a(default-general-exception-handler.o)
 .debug_frame   0x00003a38       0x20 /Applications/microchip/xc32/v2.50/bin/bin/../../lib/gcc/pic32mx/4.8.3/../../../../pic32mx/lib/libpic32.a(defaultinterrupt.o)
 .debug_frame   0x00003a58       0x34 /Applications/microchip/xc32/v2.50/bin/bin/../../lib/gcc/pic32mx/4.8.3/../../../../pic32mx/lib/libm.a(w_sqrt.o)
 .debug_frame   0x00003a8c       0x20 /Applications/microchip/xc32/v2.50/bin/bin/../../lib/gcc/pic32mx/4.8.3/libgcc.a(_udivdi3.o)
 .debug_frame   0x00003aac       0x20 /Applications/microchip/xc32/v2.50/bin/bin/../../lib/gcc/pic32mx/4.8.3/libgcc.a(_umoddi3.o)
 .debug_frame   0x00003acc       0x2c /Applications/microchip/xc32/v2.50/bin/bin/../../lib/gcc/pic32mx/4.8.3/../../../../pic32mx/lib/libpic32.a(_mon_getc.o)
 .debug_frame   0x00003af8       0x30 /Applications/microchip/xc32/v2.50/bin/bin/../../lib/gcc/pic32mx/4.8.3/../../../../pic32mx/lib/libpic32.a(_mon_write.o)
 .debug_frame   0x00003b28       0x2c /Applications/microchip/xc32/v2.50/bin/bin/../../lib/gcc/pic32mx/4.8.3/../../../../pic32mx/lib/libpic32.a(_mon_putc.o)

.debug_str      0x00000000      0x772
 *(.debug_str)
 .debug_str     0x00000000        0x0 build/FrameworkWith_u8g2/production/FrameworkSource/ES_Port.o
 .debug_str     0x00000000       0x30 build/FrameworkWith_u8g2/production/FrameworkSource/ES_Timers.o
 .debug_str     0x00000030        0x0 build/FrameworkWith_u8g2/production/FrameworkSource/ES_LookupTables.o
 .debug_str     0x00000030        0x0 build/FrameworkWith_u8g2/production/FrameworkSource/ES_CheckEvents.o
 .debug_str     0x00000030        0x0 build/FrameworkWith_u8g2/production/FrameworkSource/ES_DeferRecall.o
 .debug_str     0x00000030       0x50 build/FrameworkWith_u8g2/production/FrameworkSource/ES_Framework.o
 .debug_str     0x00000080       0x1c build/FrameworkWith_u8g2/production/FrameworkSource/ES_Queue.o
 .debug_str     0x0000009c       0x30 build/FrameworkWith_u8g2/production/FrameworkSource/ES_PostList.o
 .debug_str     0x000000cc        0x0 build/FrameworkWith_u8g2/production/FrameworkSource/terminal.o
 .debug_str     0x000000cc        0x0 build/FrameworkWith_u8g2/production/ProjectSource/main.o
 .debug_str     0x000000cc       0x30 build/FrameworkWith_u8g2/production/ProjectSource/EventCheckers.o
 .debug_str     0x000000fc        0xb build/FrameworkWith_u8g2/production/ProjectSource/dbprintf.o
 .debug_str     0x00000107        0x0 build/FrameworkWith_u8g2/production/ProjectSource/pinsHAL.o
 .debug_str     0x00000107        0x0 build/FrameworkWith_u8g2/production/ProjectSource/PIC32_AD_Lib.o
 .debug_str     0x00000107       0x30 build/FrameworkWith_u8g2/production/ProjectSource/joystickHelpers.o
 .debug_str     0x00000137        0x0 build/FrameworkWith_u8g2/production/ProjectSource/spiHAL.o
 .debug_str     0x00000137       0x13 build/FrameworkWith_u8g2/production/ProjectSource/OLEDService.o
 .debug_str     0x0000014a       0xb9 build/FrameworkWith_u8g2/production/ProjectSource/Comms.o
 .debug_str     0x00000203       0x69 build/FrameworkWith_u8g2/production/ProjectSource/CommsRx.o
 .debug_str     0x0000026c       0x7d build/FrameworkWith_u8g2/production/ProjectSource/CommsTx.o
 .debug_str     0x000002e9       0x23 build/FrameworkWith_u8g2/production/ProjectSource/OPAMP.o
 .debug_str     0x0000030c       0x6c build/FrameworkWith_u8g2/production/ProjectSource/PackDataHandler.o
 .debug_str     0x00000378       0x64 build/FrameworkWith_u8g2/production/ProjectSource/TVS.o
 .debug_str     0x000003dc       0x92 build/FrameworkWith_u8g2/production/ProjectSource/ZENER.o
 .debug_str     0x0000046e        0x0 build/FrameworkWith_u8g2/production/u8g2/spi_master.o
 .debug_str     0x0000046e       0x2b build/FrameworkWith_u8g2/production/u8g2/u8g2_bitmap.o
 .debug_str     0x00000499        0x9 build/FrameworkWith_u8g2/production/u8g2/u8g2_box.o
 .debug_str     0x000004a2        0xe build/FrameworkWith_u8g2/production/u8g2/u8g2_buffer.o
 .debug_str     0x000004b0       0x15 build/FrameworkWith_u8g2/production/u8g2/u8g2_circle.o
 .debug_str     0x000004c5        0x9 build/FrameworkWith_u8g2/production/u8g2/u8g2_cleardisplay.o
 .debug_str     0x000004ce        0x9 build/FrameworkWith_u8g2/production/u8g2/u8g2_d_memory.o
 .debug_str     0x000004d7       0x3c build/FrameworkWith_u8g2/production/u8g2/u8g2_d_setup.o
 .debug_str     0x00000513       0x5a build/FrameworkWith_u8g2/production/u8g2/u8g2_font.o
 .debug_str     0x0000056d        0x0 build/FrameworkWith_u8g2/production/u8g2/u8g2_fonts.o
 .debug_str     0x0000056d        0xe build/FrameworkWith_u8g2/production/u8g2/u8g2_hvline.o
 .debug_str     0x0000057b       0x22 build/FrameworkWith_u8g2/production/u8g2/u8g2_input_value.o
 .debug_str     0x0000059d        0x9 build/FrameworkWith_u8g2/production/u8g2/u8g2_intersection.o
 .debug_str     0x000005a6        0x9 build/FrameworkWith_u8g2/production/u8g2/u8g2_kerning.o
 .debug_str     0x000005af        0x9 build/FrameworkWith_u8g2/production/u8g2/u8g2_line.o
 .debug_str     0x000005b8       0x14 build/FrameworkWith_u8g2/production/u8g2/u8g2_ll_hvline.o
 .debug_str     0x000005cc       0x16 build/FrameworkWith_u8g2/production/u8g2/u8g2_message.o
 .debug_str     0x000005e2        0x0 build/FrameworkWith_u8g2/production/u8g2/u8g2_pic32mz.o
 .debug_str     0x000005e2        0xe build/FrameworkWith_u8g2/production/u8g2/u8g2_polygon.o
 .debug_str     0x000005f0       0x2b build/FrameworkWith_u8g2/production/u8g2/u8g2_selection_list.o
 .debug_str     0x0000061b       0x3d build/FrameworkWith_u8g2/production/u8g2/u8g2_setup.o
 .debug_str     0x00000658       0x3f build/FrameworkWith_u8g2/production/u8g2/u8log.o
 .debug_str     0x00000697        0x9 build/FrameworkWith_u8g2/production/u8g2/u8log_u8g2.o
 .debug_str     0x000006a0        0x0 build/FrameworkWith_u8g2/production/u8g2/u8log_u8x8.o
 .debug_str     0x000006a0        0xe build/FrameworkWith_u8g2/production/u8g2/u8x8_8x8.o
 .debug_str     0x000006ae       0x3a build/FrameworkWith_u8g2/production/u8g2/u8x8_byte.o
 .debug_str     0x000006e8       0x21 build/FrameworkWith_u8g2/production/u8g2/u8x8_cad.o
 .debug_str     0x00000709       0x15 build/FrameworkWith_u8g2/production/u8g2/u8x8_d_ssd1306_128x64_noname.o
 .debug_str     0x0000071e        0xa build/FrameworkWith_u8g2/production/u8g2/u8x8_debounce.o
 .debug_str     0x00000728       0x1b build/FrameworkWith_u8g2/production/u8g2/u8x8_display.o
 .debug_str     0x00000743        0x0 build/FrameworkWith_u8g2/production/u8g2/u8x8_fonts.o
 .debug_str     0x00000743        0x0 build/FrameworkWith_u8g2/production/u8g2/u8x8_gpio.o
 .debug_str     0x00000743        0x0 build/FrameworkWith_u8g2/production/u8g2/u8x8_input_value.o
 .debug_str     0x00000743        0x0 build/FrameworkWith_u8g2/production/u8g2/u8x8_message.o
 .debug_str     0x00000743        0x0 build/FrameworkWith_u8g2/production/u8g2/u8x8_selection_list.o
 .debug_str     0x00000743       0x1d build/FrameworkWith_u8g2/production/u8g2/u8x8_setup.o
 .debug_str     0x00000760       0x12 build/FrameworkWith_u8g2/production/u8g2/u8x8_string.o
 .debug_str     0x00000772        0x0 build/FrameworkWith_u8g2/production/u8g2/u8x8_u16toa.o
 .debug_str     0x00000772        0x0 build/FrameworkWith_u8g2/production/u8g2/u8x8_u8toa.o
 .debug_str     0x00000772        0x0 /Applications/microchip/xc32/v2.50/bin/bin/../../lib/gcc/pic32mx/4.8.3/libgcc.a(floatunsidf.o)
 .debug_str     0x00000772        0x0 /Applications/microchip/xc32/v2.50/bin/bin/../../lib/gcc/pic32mx/4.8.3/../../../../pic32mx/lib/libpic32.a(default-bootstrap-exception-handler.o)
 .debug_str     0x00000772        0x0 /Applications/microchip/xc32/v2.50/bin/bin/../../lib/gcc/pic32mx/4.8.3/../../../../pic32mx/lib/libpic32.a(default-on-reset.o)
 .debug_str     0x00000772        0x0 /Applications/microchip/xc32/v2.50/bin/bin/../../lib/gcc/pic32mx/4.8.3/../../../../pic32mx/lib/libpic32.a(default-on-bootstrap.o)
 .debug_str     0x00000772        0x0 /Applications/microchip/xc32/v2.50/bin/bin/../../lib/gcc/pic32mx/4.8.3/../../../../pic32mx/lib/libpic32.a(xc32_uart.o)
 .debug_str     0x00000772        0x0 /Applications/microchip/xc32/v2.50/bin/bin/../../lib/gcc/pic32mx/4.8.3/../../../../pic32mx/lib/libpic32.a(default-general-exception-handler.o)
 .debug_str     0x00000772        0x0 /Applications/microchip/xc32/v2.50/bin/bin/../../lib/gcc/pic32mx/4.8.3/../../../../pic32mx/lib/libpic32.a(defaultinterrupt.o)
 .debug_str     0x00000772        0x0 /Applications/microchip/xc32/v2.50/bin/bin/../../lib/gcc/pic32mx/4.8.3/../../../../pic32mx/lib/libm.a(w_sqrt.o)
 .debug_str     0x00000772        0x0 /Applications/microchip/xc32/v2.50/bin/bin/../../lib/gcc/pic32mx/4.8.3/../../../../pic32mx/lib/libm.a(s_lib_ver.o)
 .debug_str     0x00000772        0x0 /Applications/microchip/xc32/v2.50/bin/bin/../../lib/gcc/pic32mx/4.8.3/libgcc.a(_udivdi3.o)
 .debug_str     0x00000772        0x0 /Applications/microchip/xc32/v2.50/bin/bin/../../lib/gcc/pic32mx/4.8.3/libgcc.a(_umoddi3.o)
 .debug_str     0x00000772        0x0 /Applications/microchip/xc32/v2.50/bin/bin/../../lib/gcc/pic32mx/4.8.3/../../../../pic32mx/lib/libpic32.a(_mon_getc.o)
 .debug_str     0x00000772        0x0 /Applications/microchip/xc32/v2.50/bin/bin/../../lib/gcc/pic32mx/4.8.3/../../../../pic32mx/lib/libpic32.a(_mon_write.o)
 .debug_str     0x00000772        0x0 /Applications/microchip/xc32/v2.50/bin/bin/../../lib/gcc/pic32mx/4.8.3/../../../../pic32mx/lib/libpic32.a(_mon_putc.o)

.debug_loc      0x00000000     0x1617
 *(.debug_loc)
 .debug_loc     0x00000000       0x80 /Applications/microchip/xc32/v2.50/bin/bin/../../lib/gcc/pic32mx/4.8.3/libgcc.a(floatunsidf.o)
 .debug_loc     0x00000080       0x2c /Applications/microchip/xc32/v2.50/bin/bin/../../lib/gcc/pic32mx/4.8.3/../../../../pic32mx/lib/libpic32.a(default-bootstrap-exception-handler.o)
 .debug_loc     0x000000ac       0x2c /Applications/microchip/xc32/v2.50/bin/bin/../../lib/gcc/pic32mx/4.8.3/../../../../pic32mx/lib/libpic32.a(default-general-exception-handler.o)
 .debug_loc     0x000000d8       0x2c /Applications/microchip/xc32/v2.50/bin/bin/../../lib/gcc/pic32mx/4.8.3/../../../../pic32mx/lib/libm.a(w_sqrt.o)
 .debug_loc     0x00000104      0xa6a /Applications/microchip/xc32/v2.50/bin/bin/../../lib/gcc/pic32mx/4.8.3/libgcc.a(_udivdi3.o)
 .debug_loc     0x00000b6e      0xa3d /Applications/microchip/xc32/v2.50/bin/bin/../../lib/gcc/pic32mx/4.8.3/libgcc.a(_umoddi3.o)
 .debug_loc     0x000015ab       0x20 /Applications/microchip/xc32/v2.50/bin/bin/../../lib/gcc/pic32mx/4.8.3/../../../../pic32mx/lib/libpic32.a(_mon_getc.o)
 .debug_loc     0x000015cb       0x2c /Applications/microchip/xc32/v2.50/bin/bin/../../lib/gcc/pic32mx/4.8.3/../../../../pic32mx/lib/libpic32.a(_mon_write.o)
 .debug_loc     0x000015f7       0x20 /Applications/microchip/xc32/v2.50/bin/bin/../../lib/gcc/pic32mx/4.8.3/../../../../pic32mx/lib/libpic32.a(_mon_putc.o)

.debug_macinfo
 *(.debug_macinfo)

.debug_weaknames
 *(.debug_weaknames)

.debug_funcnames
 *(.debug_funcnames)

.debug_typenames
 *(.debug_typenames)

.debug_varnames
 *(.debug_varnames)

.debug_pubtypes
 *(.debug_pubtypes)

.debug_ranges   0x00000000      0x218
 *(.debug_ranges)
 .debug_ranges  0x00000000       0x18 build/FrameworkWith_u8g2/production/ProjectSource/OPAMP.o
 .debug_ranges  0x00000018       0x10 /Applications/microchip/xc32/v2.50/bin/bin/../../lib/gcc/pic32mx/4.8.3/../../../../pic32mx/lib/libpic32.a(default-bootstrap-exception-handler.o)
 .debug_ranges  0x00000028       0x10 /Applications/microchip/xc32/v2.50/bin/bin/../../lib/gcc/pic32mx/4.8.3/../../../../pic32mx/lib/libpic32.a(default-on-reset.o)
 .debug_ranges  0x00000038       0x10 /Applications/microchip/xc32/v2.50/bin/bin/../../lib/gcc/pic32mx/4.8.3/../../../../pic32mx/lib/libpic32.a(default-on-bootstrap.o)
 .debug_ranges  0x00000048       0x10 /Applications/microchip/xc32/v2.50/bin/bin/../../lib/gcc/pic32mx/4.8.3/../../../../pic32mx/lib/libpic32.a(default-general-exception-handler.o)
 .debug_ranges  0x00000058       0x10 /Applications/microchip/xc32/v2.50/bin/bin/../../lib/gcc/pic32mx/4.8.3/../../../../pic32mx/lib/libpic32.a(defaultinterrupt.o)
 .debug_ranges  0x00000068       0x10 /Applications/microchip/xc32/v2.50/bin/bin/../../lib/gcc/pic32mx/4.8.3/../../../../pic32mx/lib/libm.a(w_sqrt.o)
 .debug_ranges  0x00000078       0x98 /Applications/microchip/xc32/v2.50/bin/bin/../../lib/gcc/pic32mx/4.8.3/libgcc.a(_udivdi3.o)
 .debug_ranges  0x00000110       0xd8 /Applications/microchip/xc32/v2.50/bin/bin/../../lib/gcc/pic32mx/4.8.3/libgcc.a(_umoddi3.o)
 .debug_ranges  0x000001e8       0x10 /Applications/microchip/xc32/v2.50/bin/bin/../../lib/gcc/pic32mx/4.8.3/../../../../pic32mx/lib/libpic32.a(_mon_getc.o)
 .debug_ranges  0x000001f8       0x10 /Applications/microchip/xc32/v2.50/bin/bin/../../lib/gcc/pic32mx/4.8.3/../../../../pic32mx/lib/libpic32.a(_mon_write.o)
 .debug_ranges  0x00000208       0x10 /Applications/microchip/xc32/v2.50/bin/bin/../../lib/gcc/pic32mx/4.8.3/../../../../pic32mx/lib/libpic32.a(_mon_putc.o)

.gnu.attributes
                0x00000000       0x10
 *(.gnu.attributes)
 .gnu.attributes
                0x00000000       0x10 build/FrameworkWith_u8g2/production/FrameworkSource/ES_Port.o
 .gnu.attributes
                0x00000010       0x10 build/FrameworkWith_u8g2/production/FrameworkSource/ES_Timers.o
 .gnu.attributes
                0x00000020       0x10 build/FrameworkWith_u8g2/production/FrameworkSource/ES_LookupTables.o
 .gnu.attributes
                0x00000030       0x10 build/FrameworkWith_u8g2/production/FrameworkSource/ES_CheckEvents.o
 .gnu.attributes
                0x00000040       0x10 build/FrameworkWith_u8g2/production/FrameworkSource/ES_DeferRecall.o
 .gnu.attributes
                0x00000050       0x10 build/FrameworkWith_u8g2/production/FrameworkSource/ES_Framework.o
 .gnu.attributes
                0x00000060       0x10 build/FrameworkWith_u8g2/production/FrameworkSource/ES_Queue.o
 .gnu.attributes
                0x00000070       0x10 build/FrameworkWith_u8g2/production/FrameworkSource/ES_PostList.o
 .gnu.attributes
                0x00000080       0x10 build/FrameworkWith_u8g2/production/FrameworkSource/terminal.o
 .gnu.attributes
                0x00000090       0x10 build/FrameworkWith_u8g2/production/ProjectSource/main.o
 .gnu.attributes
                0x000000a0       0x10 build/FrameworkWith_u8g2/production/ProjectSource/EventCheckers.o
 .gnu.attributes
                0x000000b0       0x10 build/FrameworkWith_u8g2/production/ProjectSource/dbprintf.o
 .gnu.attributes
                0x000000c0       0x10 build/FrameworkWith_u8g2/production/ProjectSource/pinsHAL.o
 .gnu.attributes
                0x000000d0       0x10 build/FrameworkWith_u8g2/production/ProjectSource/PIC32_AD_Lib.o
 .gnu.attributes
                0x000000e0       0x10 build/FrameworkWith_u8g2/production/ProjectSource/joystickHelpers.o
 .gnu.attributes
                0x000000f0       0x10 build/FrameworkWith_u8g2/production/ProjectSource/spiHAL.o
 .gnu.attributes
                0x00000100       0x10 build/FrameworkWith_u8g2/production/ProjectSource/OLEDService.o
 .gnu.attributes
                0x00000110       0x10 build/FrameworkWith_u8g2/production/ProjectSource/Comms.o
 .gnu.attributes
                0x00000120       0x10 build/FrameworkWith_u8g2/production/ProjectSource/CommsRx.o
 .gnu.attributes
                0x00000130       0x10 build/FrameworkWith_u8g2/production/ProjectSource/CommsTx.o
 .gnu.attributes
                0x00000140       0x10 build/FrameworkWith_u8g2/production/ProjectSource/OPAMP.o
 .gnu.attributes
                0x00000150       0x10 build/FrameworkWith_u8g2/production/ProjectSource/PackDataHandler.o
 .gnu.attributes
                0x00000160       0x10 build/FrameworkWith_u8g2/production/ProjectSource/TVS.o
 .gnu.attributes
                0x00000170       0x10 build/FrameworkWith_u8g2/production/ProjectSource/ZENER.o
 .gnu.attributes
                0x00000180       0x10 build/FrameworkWith_u8g2/production/u8g2/spi_master.o
 .gnu.attributes
                0x00000190       0x10 build/FrameworkWith_u8g2/production/u8g2/u8g2_bitmap.o
 .gnu.attributes
                0x000001a0       0x10 build/FrameworkWith_u8g2/production/u8g2/u8g2_box.o
 .gnu.attributes
                0x000001b0       0x10 build/FrameworkWith_u8g2/production/u8g2/u8g2_buffer.o
 .gnu.attributes
                0x000001c0       0x10 build/FrameworkWith_u8g2/production/u8g2/u8g2_circle.o
 .gnu.attributes
                0x000001d0       0x10 build/FrameworkWith_u8g2/production/u8g2/u8g2_cleardisplay.o
 .gnu.attributes
                0x000001e0       0x10 build/FrameworkWith_u8g2/production/u8g2/u8g2_d_memory.o
 .gnu.attributes
                0x000001f0       0x10 build/FrameworkWith_u8g2/production/u8g2/u8g2_d_setup.o
 .gnu.attributes
                0x00000200       0x10 build/FrameworkWith_u8g2/production/u8g2/u8g2_font.o
 .gnu.attributes
                0x00000210       0x10 build/FrameworkWith_u8g2/production/u8g2/u8g2_fonts.o
 .gnu.attributes
                0x00000220       0x10 build/FrameworkWith_u8g2/production/u8g2/u8g2_hvline.o
 .gnu.attributes
                0x00000230       0x10 build/FrameworkWith_u8g2/production/u8g2/u8g2_input_value.o
 .gnu.attributes
                0x00000240       0x10 build/FrameworkWith_u8g2/production/u8g2/u8g2_intersection.o
 .gnu.attributes
                0x00000250       0x10 build/FrameworkWith_u8g2/production/u8g2/u8g2_kerning.o
 .gnu.attributes
                0x00000260       0x10 build/FrameworkWith_u8g2/production/u8g2/u8g2_line.o
 .gnu.attributes
                0x00000270       0x10 build/FrameworkWith_u8g2/production/u8g2/u8g2_ll_hvline.o
 .gnu.attributes
                0x00000280       0x10 build/FrameworkWith_u8g2/production/u8g2/u8g2_message.o
 .gnu.attributes
                0x00000290       0x10 build/FrameworkWith_u8g2/production/u8g2/u8g2_pic32mz.o
 .gnu.attributes
                0x000002a0       0x10 build/FrameworkWith_u8g2/production/u8g2/u8g2_polygon.o
 .gnu.attributes
                0x000002b0       0x10 build/FrameworkWith_u8g2/production/u8g2/u8g2_selection_list.o
 .gnu.attributes
                0x000002c0       0x10 build/FrameworkWith_u8g2/production/u8g2/u8g2_setup.o
 .gnu.attributes
                0x000002d0       0x10 build/FrameworkWith_u8g2/production/u8g2/u8log.o
 .gnu.attributes
                0x000002e0       0x10 build/FrameworkWith_u8g2/production/u8g2/u8log_u8g2.o
 .gnu.attributes
                0x000002f0       0x10 build/FrameworkWith_u8g2/production/u8g2/u8log_u8x8.o
 .gnu.attributes
                0x00000300       0x10 build/FrameworkWith_u8g2/production/u8g2/u8x8_8x8.o
 .gnu.attributes
                0x00000310       0x10 build/FrameworkWith_u8g2/production/u8g2/u8x8_byte.o
 .gnu.attributes
                0x00000320       0x10 build/FrameworkWith_u8g2/production/u8g2/u8x8_cad.o
 .gnu.attributes
                0x00000330       0x10 build/FrameworkWith_u8g2/production/u8g2/u8x8_d_ssd1306_128x64_noname.o
 .gnu.attributes
                0x00000340       0x10 build/FrameworkWith_u8g2/production/u8g2/u8x8_debounce.o
 .gnu.attributes
                0x00000350       0x10 build/FrameworkWith_u8g2/production/u8g2/u8x8_display.o
 .gnu.attributes
                0x00000360       0x10 build/FrameworkWith_u8g2/production/u8g2/u8x8_fonts.o
 .gnu.attributes
                0x00000370       0x10 build/FrameworkWith_u8g2/production/u8g2/u8x8_gpio.o
 .gnu.attributes
                0x00000380       0x10 build/FrameworkWith_u8g2/production/u8g2/u8x8_input_value.o
 .gnu.attributes
                0x00000390       0x10 build/FrameworkWith_u8g2/production/u8g2/u8x8_message.o
 .gnu.attributes
                0x000003a0       0x10 build/FrameworkWith_u8g2/production/u8g2/u8x8_selection_list.o
 .gnu.attributes
                0x000003b0       0x10 build/FrameworkWith_u8g2/production/u8g2/u8x8_setup.o
 .gnu.attributes
                0x000003c0       0x10 build/FrameworkWith_u8g2/production/u8g2/u8x8_string.o
 .gnu.attributes
                0x000003d0       0x10 build/FrameworkWith_u8g2/production/u8g2/u8x8_u16toa.o
 .gnu.attributes
                0x000003e0       0x10 build/FrameworkWith_u8g2/production/u8g2/u8x8_u8toa.o
 .gnu.attributes
                0x000003f0       0x10 /Applications/microchip/xc32/v2.50/bin/bin/../../lib/gcc/pic32mx/4.8.3/libgcc.a(floatunsidf.o)
 .gnu.attributes
                0x00000400       0x10 /Applications/microchip/xc32/v2.50/bin/bin/../../lib/gcc/pic32mx/4.8.3/../../../../pic32mx/lib/libpic32.a(default-bootstrap-exception-handler.o)
 .gnu.attributes
                0x00000410       0x10 /Applications/microchip/xc32/v2.50/bin/bin/../../lib/gcc/pic32mx/4.8.3/../../../../pic32mx/lib/libpic32.a(default-on-reset.o)
 .gnu.attributes
                0x00000420       0x10 /Applications/microchip/xc32/v2.50/bin/bin/../../lib/gcc/pic32mx/4.8.3/../../../../pic32mx/lib/libpic32.a(default-on-bootstrap.o)
 .gnu.attributes
                0x00000430       0x10 /Applications/microchip/xc32/v2.50/bin/bin/../../lib/gcc/pic32mx/4.8.3/../../../../pic32mx/lib/libpic32.a(xc32_uart.o)
 .gnu.attributes
                0x00000440       0x10 /Applications/microchip/xc32/v2.50/bin/bin/../../lib/gcc/pic32mx/4.8.3/../../../../pic32mx/lib/libpic32.a(default-general-exception-handler.o)
 .gnu.attributes
                0x00000450       0x10 /Applications/microchip/xc32/v2.50/bin/bin/../../lib/gcc/pic32mx/4.8.3/../../../../pic32mx/lib/libpic32.a(defaultinterrupt.o)
 .gnu.attributes
                0x00000460       0x10 /Applications/microchip/xc32/v2.50/bin/bin/../../lib/gcc/pic32mx/4.8.3/../../../../pic32mx/lib/liblega-c.a(fputc.o)
 .gnu.attributes
                0x00000470       0x10 /Applications/microchip/xc32/v2.50/bin/bin/../../lib/gcc/pic32mx/4.8.3/../../../../pic32mx/lib/liblega-c.a(fputs.o)
 .gnu.attributes
                0x00000480       0x10 /Applications/microchip/xc32/v2.50/bin/bin/../../lib/gcc/pic32mx/4.8.3/../../../../pic32mx/lib/liblega-c.a(printf_cdfFnopuxX.eo)
 .gnu.attributes
                0x00000490       0x10 /Applications/microchip/xc32/v2.50/bin/bin/../../lib/gcc/pic32mx/4.8.3/../../../../pic32mx/lib/liblega-c.a(strlen.o)
 .gnu.attributes
                0x000004a0       0x10 /Applications/microchip/xc32/v2.50/bin/bin/../../lib/gcc/pic32mx/4.8.3/../../../../pic32mx/lib/liblega-c.a(_doprnt_cdfFnopuxX.eo)
 .gnu.attributes
                0x000004b0       0x10 /Applications/microchip/xc32/v2.50/bin/bin/../../lib/gcc/pic32mx/4.8.3/../../../../pic32mx/lib/liblega-c.a(_iobdata.o)
 .gnu.attributes
                0x000004c0       0x10 /Applications/microchip/xc32/v2.50/bin/bin/../../lib/gcc/pic32mx/4.8.3/../../../../pic32mx/lib/liblega-c.a(_iobfuncs.o)
 .gnu.attributes
                0x000004d0       0x10 /Applications/microchip/xc32/v2.50/bin/bin/../../lib/gcc/pic32mx/4.8.3/../../../../pic32mx/lib/liblega-c.a(errno.o)
 .gnu.attributes
                0x000004e0       0x10 /Applications/microchip/xc32/v2.50/bin/bin/../../lib/gcc/pic32mx/4.8.3/../../../../pic32mx/lib/libm.a(w_sqrt.o)
 .gnu.attributes
                0x000004f0       0x10 /Applications/microchip/xc32/v2.50/bin/bin/../../lib/gcc/pic32mx/4.8.3/../../../../pic32mx/lib/libm.a(s_lib_ver.o)
 .gnu.attributes
                0x00000500       0x10 /Applications/microchip/xc32/v2.50/bin/bin/../../lib/gcc/pic32mx/4.8.3/libgcc.a(_udivdi3.o)
 .gnu.attributes
                0x00000510       0x10 /Applications/microchip/xc32/v2.50/bin/bin/../../lib/gcc/pic32mx/4.8.3/libgcc.a(_umoddi3.o)
 .gnu.attributes
                0x00000520       0x10 /Applications/microchip/xc32/v2.50/bin/bin/../../lib/gcc/pic32mx/4.8.3/../../../../pic32mx/lib/libpic32.a(_mon_getc.o)
 .gnu.attributes
                0x00000530       0x10 /Applications/microchip/xc32/v2.50/bin/bin/../../lib/gcc/pic32mx/4.8.3/../../../../pic32mx/lib/libpic32.a(_mon_write.o)
 .gnu.attributes
                0x00000540       0x10 /Applications/microchip/xc32/v2.50/bin/bin/../../lib/gcc/pic32mx/4.8.3/../../../../pic32mx/lib/libpic32.a(_mon_putc.o)
LOAD /Applications/microchip/xc32/v2.50/bin/bin/../../lib/gcc/pic32mx/4.8.3/libgcc.a
START GROUP
LOAD /Applications/microchip/xc32/v2.50/bin/bin/../../lib/gcc/pic32mx/4.8.3/../../../../pic32mx/lib/libpic32.a
LOAD /Applications/microchip/xc32/v2.50/bin/bin/../../lib/gcc/pic32mx/4.8.3/../../../../pic32mx/lib/libdebug.a
LOAD /Applications/microchip/xc32/v2.50/bin/bin/../../lib/gcc/pic32mx/4.8.3/../../../../pic32mx/lib/libpic32.a
LOAD /Applications/microchip/xc32/v2.50/bin/bin/../../lib/gcc/pic32mx/4.8.3/../../../../pic32mx/lib/liblega-c.a
LOAD /Applications/microchip/xc32/v2.50/bin/bin/../../lib/gcc/pic32mx/4.8.3/../../../../pic32mx/lib/libm.a
LOAD /Applications/microchip/xc32/v2.50/bin/bin/../../lib/gcc/pic32mx/4.8.3/../../../../pic32mx/lib/libe.a
LOAD /Applications/microchip/xc32/v2.50/bin/bin/../../lib/gcc/pic32mx/4.8.3/../../../../pic32mx/lib/libdsp.a
LOAD /Applications/microchip/xc32/v2.50/bin/bin/../../lib/gcc/pic32mx/4.8.3/libgcc.a
LOAD /Applications/microchip/xc32/v2.50/bin/bin/../../lib/gcc/pic32mx/4.8.3/../../../../pic32mx/lib/libpic32.a
END GROUP
LOAD /Applications/microchip/xc32/v2.50/bin/bin/../../lib/gcc/pic32mx/4.8.3/libgcc.a
OUTPUT(dist/FrameworkWith_u8g2/production/Project.production.elf elf32-tradlittlemips)
LOAD stack
LOAD data_init

.reginfo        0x00000000       0x18
 .reginfo       0x00000000       0x18 /Applications/microchip/xc32/v2.50/bin/bin/../../lib/gcc/pic32mx/4.8.3/../../../../pic32mx/lib/debug-exception-return.o

.stack          0xa0000b00      0x400
 .stack         0xa0000b00      0x400 stack

.bss            0xa0000204      0x558
 .bss           0xa0000204      0x480 build/FrameworkWith_u8g2/production/u8g2/u8g2_d_memory.o
 .bss           0xa0000684       0xd8 build/FrameworkWith_u8g2/production/ProjectSource/OLEDService.o

.data           0xa000075c       0xd4
 .data          0xa000075c       0xd4 /Applications/microchip/xc32/v2.50/bin/bin/../../lib/gcc/pic32mx/4.8.3/../../../../pic32mx/lib/liblega-c.a(_iobdata.o)

.bss            0xa0000830      0x15c
 .bss           0xa0000830       0xc0 build/FrameworkWith_u8g2/production/FrameworkSource/ES_Framework.o
 .bss           0xa00008f0       0x9c build/FrameworkWith_u8g2/production/ProjectSource/ZENER.o

.bss            0xa000098c       0x88
 .bss           0xa000098c       0x88 /Applications/microchip/xc32/v2.50/bin/bin/../../lib/gcc/pic32mx/4.8.3/../../../../pic32mx/lib/liblega-c.a(_iobdata.o)

.data           0xa0000a14       0x70
 .data          0xa0000a14       0x70 /Applications/microchip/xc32/v2.50/bin/bin/../../lib/gcc/pic32mx/4.8.3/../../../../pic32mx/lib/libm.a(sincos32.o)
                0xa0000a14                sincon
                0xa0000a4c                coscon

.bss            0xa0000a84       0x38
 .bss           0xa0000a84       0x20 build/FrameworkWith_u8g2/production/FrameworkSource/ES_Timers.o
 .bss           0xa0000aa4       0x18 build/FrameworkWith_u8g2/production/ProjectSource/CommsRx.o

.bss            0xa0000abc       0x10
 .bss           0xa0000abc       0x10 build/FrameworkWith_u8g2/production/u8g2/u8x8_cad.o

.data.math_errhandling_flag
                0xa0000acc        0x4
 .data.math_errhandling_flag
                0xa0000acc        0x4 /Applications/microchip/xc32/v2.50/bin/bin/../../lib/gcc/pic32mx/4.8.3/../../../../pic32mx/lib/libm.a(s_lib_ver.o)
                0xa0000acc                math_errhandling

._debug_exception
                0xbfc00480       0x2c
 ._debug_exception
                0xbfc00480       0x2c /Applications/microchip/xc32/v2.50/bin/bin/../../lib/gcc/pic32mx/4.8.3/../../../../pic32mx/lib/debug-exception-return.o
                0xbfc00480                __DbgExecReturn

.text           0x9d000000     0x2608
 .text          0x9d000000     0x2608 build/FrameworkWith_u8g2/production/u8g2/u8g2_font.o
                0x9d0000c0                u8g2_read_font_info
                0x9d000320                u8g2_GetFontSize
                0x9d000440                u8g2_GetFontBBXWidth
                0x9d000470                u8g2_GetFontBBXHeight
                0x9d0004a0                u8g2_GetFontBBXOffX
                0x9d0004cc                u8g2_GetFontBBXOffY
                0x9d0004f8                u8g2_GetFontCapitalAHeight
                0x9d000528                u8g2_font_decode_get_unsigned_bits
                0x9d000640                u8g2_font_decode_get_signed_bits
                0x9d000850                u8g2_font_decode_len
                0x9d000b2c                u8g2_font_decode_glyph
                0x9d000f20                u8g2_font_get_glyph_data
                0x9d0011c4                u8g2_IsGlyph
                0x9d001224                u8g2_GetGlyphWidth
                0x9d001304                u8g2_SetFontMode
                0x9d00133c                u8g2_DrawGlyph
                0x9d001634                u8g2_DrawStr
                0x9d0016a4                u8g2_DrawUTF8
                0x9d001714                u8g2_DrawExtendedUTF8
                0x9d0018f8                u8g2_DrawExtUTF8
                0x9d001acc                u8g2_UpdateRefHeight
                0x9d001c34                u8g2_SetFontRefHeightText
                0x9d001c74                u8g2_SetFontRefHeightExtendedText
                0x9d001cb8                u8g2_SetFontRefHeightAll
                0x9d001cfc                u8g2_font_calc_vref_font
                0x9d001d24                u8g2_SetFontPosBaseline
                0x9d001d58                u8g2_font_calc_vref_bottom
                0x9d001d88                u8g2_SetFontPosBottom
                0x9d001dbc                u8g2_font_calc_vref_top
                0x9d001dfc                u8g2_SetFontPosTop
                0x9d001e30                u8g2_font_calc_vref_center
                0x9d001eb0                u8g2_SetFontPosCenter
                0x9d001ee4                u8g2_SetFont
                0x9d002028                u8g2_IsAllValidUTF8
                0x9d0022b4                u8g2_GetStrX
                0x9d0024e0                u8g2_GetStrWidth
                0x9d002530                u8g2_GetExactStrWidth
                0x9d002580                u8g2_GetUTF8Width
                0x9d0025d0                u8g2_SetFontDirection

.rodata         0x9d002608     0x203c
 .rodata        0x9d002608     0x203c build/FrameworkWith_u8g2/production/u8g2/u8g2_fonts.o
                0x9d002608                u8g2_font_t0_18_mr
                0x9d002cbc                u8g2_font_pcsenior_8n
                0x9d002db0                u8g2_font_oskool_tr
                0x9d0031c8                u8g2_font_profont10_tr
                0x9d003540                u8g2_font_maniac_tr

.text           0x9d004644     0x3294
 .text          0x9d004644     0x19bc build/FrameworkWith_u8g2/production/u8g2/u8x8_byte.o
                0x9d004644                u8x8_byte_SetDC
                0x9d00469c                u8x8_byte_SendBytes
                0x9d0046f8                u8x8_byte_SendByte
                0x9d004744                u8x8_byte_StartTransfer
                0x9d004790                u8x8_byte_EndTransfer
                0x9d0047dc                u8x8_byte_empty
                0x9d004824                u8x8_byte_4wire_sw_spi
                0x9d004b3c                u8x8_byte_8bit_6800mode
                0x9d004e00                u8x8_byte_8bit_8080mode
                0x9d0050c4                u8x8_byte_3wire_sw_spi
                0x9d0053e8                u8x8_byte_set_ks0108_cs
                0x9d005494                u8x8_byte_ks0108
                0x9d005740                u8x8_byte_sed1520
                0x9d005ea0                u8x8_byte_sw_i2c
 .text          0x9d006000     0x18d8 build/FrameworkWith_u8g2/production/u8g2/u8x8_cad.o
                0x9d006000                u8x8_cad_SendCmd
                0x9d006058                u8x8_cad_SendArg
                0x9d0060b0                u8x8_cad_SendMultipleArg
                0x9d006134                u8x8_cad_SendData
                0x9d006190                u8x8_cad_StartTransfer
                0x9d0061dc                u8x8_cad_EndTransfer
                0x9d006228                u8x8_cad_vsendf
                0x9d006330                u8x8_SendF
                0x9d006388                u8x8_cad_SendSequence
                0x9d006508                u8x8_cad_empty
                0x9d006604                u8x8_cad_110
                0x9d006730                u8x8_cad_100
                0x9d00685c                u8x8_cad_001
                0x9d006988                u8x8_cad_011
                0x9d006ab4                u8x8_cad_st7920_spi
                0x9d006e48                u8x8_cad_ssd13xx_i2c
                0x9d006fe0                u8x8_cad_ssd13xx_fast_i2c
                0x9d0071f0                u8x8_cad_st75256_i2c
                0x9d0073cc                u8x8_cad_ld7032_i2c
                0x9d0075f4                u8x8_cad_uc16xx_i2c

.text           0x9d0078d8     0x2b2c
 .text          0x9d0078d8     0x1688 build/FrameworkWith_u8g2/production/ProjectSource/Comms.o
                0x9d0078d8                InitComms
                0x9d00794c                PostComms
                0x9d007994                RunComms
                0x9d008c64                TransmitISR
                0x9d008de4                ReceiveISR
 .text          0x9d008f60     0x14a4 build/FrameworkWith_u8g2/production/ProjectSource/ZENER.o
                0x9d008f60                InitZENER
                0x9d009288                PostZENER
                0x9d0092d0                RunZENER
                0x9d009864                QueryZENER
                0x9d009888                updateAcceleration
                0x9d00994c                limitAcceleration
                0x9d009bdc                updateShipVelocity
                0x9d009c5c                limitVelocity
                0x9d009ee8                updateShipPosition
                0x9d009fe8                getPlayerX
                0x9d00a020                getPlayerY
                0x9d00a058                check4Damage
                0x9d00a318                getNumberOfEnemies
                0x9d00a33c                enemyIsAlive
                0x9d00a37c                getEnemyLocation

.text           0x9d00a404     0x26a4
 .text          0x9d00a404     0x13a4 build/FrameworkWith_u8g2/production/ProjectSource/pinsHAL.o
                0x9d00a404                pinMode
                0x9d00aca0                digitalWrite
                0x9d00b49c                digitalRead
 .text          0x9d00b7a8     0x1300 build/FrameworkWith_u8g2/production/u8g2/u8x8_8x8.o
                0x9d00b7a8                u8x8_SetFont
                0x9d00b9e4                u8x8_DrawGlyph
                0x9d00bb08                u8x8_upscale_byte
                0x9d00be5c                u8x8_Draw2x2Glyph
                0x9d00c0b4                u8x8_Draw1x2Glyph
                0x9d00c1c4                u8x8_utf8_init
                0x9d00c1f0                u8x8_ascii_next
                0x9d00c24c                u8x8_utf8_next
                0x9d00c55c                u8x8_DrawString
                0x9d00c5cc                u8x8_DrawUTF8
                0x9d00c738                u8x8_Draw2x2String
                0x9d00c7a8                u8x8_Draw2x2UTF8
                0x9d00c914                u8x8_Draw1x2String
                0x9d00c984                u8x8_Draw1x2UTF8
                0x9d00c9f4                u8x8_GetUTF8Len

.text           0x9d00caa8     0x19c8
 .text          0x9d00caa8      0xcf4 build/FrameworkWith_u8g2/production/u8g2/u8g2_setup.o
                0x9d00caa8                u8g2_SetMaxClipWindow
                0x9d00cb14                u8g2_SetClipWindow
                0x9d00cba0                u8g2_SetupBuffer
                0x9d00cc7c                u8g2_SetDisplayRotation
                0x9d00cfac                u8g2_update_dimension_r0
                0x9d00cfe4                u8g2_update_page_win_r0
                0x9d00d054                u8g2_update_dimension_r1
                0x9d00d0bc                u8g2_update_page_win_r1
                0x9d00d12c                u8g2_update_dimension_r2
                0x9d00d164                u8g2_update_page_win_r2
                0x9d00d218                u8g2_update_dimension_r3
                0x9d00d280                u8g2_update_page_win_r3
                0x9d00d334                u8g2_draw_l90_r0
                0x9d00d3a0                u8g2_draw_l90_mirrorr_r0
                0x9d00d45c                u8g2_draw_l90_r1
                0x9d00d534                u8g2_draw_l90_r2
                0x9d00d634                u8g2_draw_l90_r3
                0x9d00d718                u8g2_Setup_null
 .text          0x9d00d79c      0xcd4 build/FrameworkWith_u8g2/production/ProjectSource/TVS.o
                0x9d00d79c                InitTVS
                0x9d00d810                PostTVS
                0x9d00d858                RunTVS
                0x9d00e050                CheckButtonEvents

.text           0x9d00e470      0xc4c
 .text          0x9d00e470      0xc4c build/FrameworkWith_u8g2/production/ProjectSource/CommsRx.o
                0x9d00e470                rxstoreBuf

.text._do_print_cdfFnopuxX
                0x9d00f0bc      0xaa8
 .text._do_print_cdfFnopuxX
                0x9d00f0bc      0xaa8 /Applications/microchip/xc32/v2.50/bin/bin/../../lib/gcc/pic32mx/4.8.3/../../../../pic32mx/lib/liblega-c.a(_doprnt_cdfFnopuxX.eo)
                0x9d00f0bc                _do_print_cdnopuxX
                0x9d00f0bc                _do_print_cdfFnopuxX
                0x9d00f0bc                _do_print_fF

.text           0x9d00fb64     0x129c
 .text          0x9d00fb64      0xa24 build/FrameworkWith_u8g2/production/ProjectSource/CommsTx.o
                0x9d00fb64                teamCreatePacket
                0x9d00fc58                broadcastCreatePacket
                0x9d00fd64                teamUARTWrite
                0x9d00fe2c                broadcastUARTWrite
                0x9d00fefc                teamMessage
                0x9d0100e4                broadcastMessage
                0x9d0102e0                teamChecksum
                0x9d01042c                broadcastChecksum
 .text          0x9d010588      0x878 build/FrameworkWith_u8g2/production/u8g2/u8g2_bitmap.o
                0x9d010588                u8g2_SetBitmapMode
                0x9d0105c0                u8g2_DrawHorizontalBitmap
                0x9d01076c                u8g2_DrawBitmap
                0x9d010878                u8g2_DrawHXBM
                0x9d010a24                u8g2_DrawXBM
                0x9d010b3c                u8g2_DrawHXBMP
                0x9d010ce8                u8g2_DrawXBMP

.text           0x9d010e00     0x1004
 .text          0x9d010e00      0x808 build/FrameworkWith_u8g2/production/ProjectSource/OPAMP.o
                0x9d010e00                InitOPAMP
                0x9d010e38                PostOPAMP
                0x9d010e80                RunOPAMP
 .text          0x9d011608      0x7fc build/FrameworkWith_u8g2/production/u8g2/u8x8_d_ssd1306_128x64_noname.o
                0x9d0118ac                u8x8_d_ssd1306_128x64_noname
                0x9d011990                u8x8_d_ssd1306_128x64_vcomh0
                0x9d011a74                u8x8_d_ssd1306_128x64_alt0
                0x9d011b58                u8x8_d_sh1106_128x64_noname
                0x9d011c3c                u8x8_d_sh1106_128x64_vcomh0
                0x9d011d20                u8x8_d_sh1106_128x64_winstar

.text._fconvert
                0x9d011e04      0x6b0
 .text._fconvert
                0x9d011e04      0x6b0 /Applications/microchip/xc32/v2.50/bin/bin/../../lib/gcc/pic32mx/4.8.3/../../../../pic32mx/lib/liblega-c.a(_doprnt_cdfFnopuxX.eo)

.text           0x9d0124b4      0xbe4
 .text          0x9d0124b4      0x5f4 build/FrameworkWith_u8g2/production/u8g2/u8g2_hvline.o
                0x9d012604                u8g2_draw_hv_line_2dir
                0x9d012688                u8g2_DrawHVLine
                0x9d0128a0                u8g2_DrawHLine
                0x9d012908                u8g2_DrawVLine
                0x9d012974                u8g2_DrawPixel
                0x9d012a54                u8g2_SetDrawColor
 .text          0x9d012aa8      0x5f0 build/FrameworkWith_u8g2/production/u8g2/u8x8_display.o
                0x9d012aa8                u8x8_d_helper_display_setup_memory
                0x9d012af0                u8x8_d_helper_display_init
                0x9d012bf8                u8x8_DrawTile
                0x9d012c80                u8x8_SetupMemory
                0x9d012ccc                u8x8_InitDisplay
                0x9d012d18                u8x8_SetPowerSave
                0x9d012d70                u8x8_SetFlipMode
                0x9d012dc8                u8x8_SetContrast
                0x9d012e20                u8x8_RefreshDisplay
                0x9d012e6c                u8x8_ClearDisplayWithTile
                0x9d012f14                u8x8_ClearDisplay
                0x9d012f74                u8x8_FillDisplay
                0x9d012fe0                u8x8_ClearLine

.text           0x9d013098      0x504
 .text          0x9d013098      0x504 build/FrameworkWith_u8g2/production/u8g2/u8g2_buffer.o
                0x9d013098                u8g2_ClearBuffer
                0x9d013284                u8g2_SendBuffer
                0x9d0132c8                u8g2_SetBufferCurrTileRow
                0x9d013338                u8g2_FirstPage
                0x9d013390                u8g2_NextPage
                0x9d013450                u8g2_UpdateDisplayArea
                0x9d013564                u8g2_UpdateDisplay

.text.dp32mul   0x9d01359c      0x4b8
 .text.dp32mul  0x9d01359c      0x4b8 /Applications/microchip/xc32/v2.50/bin/bin/../../lib/gcc/pic32mx/4.8.3/../../../../pic32mx/lib/libm.a(dp32div.o)
                0x9d01359c                dpdiv
                0x9d01359c                __divdf3

.text           0x9d013a54      0x944
 .text          0x9d013a54      0x4a8 build/FrameworkWith_u8g2/production/FrameworkSource/ES_Framework.o
                0x9d013a54                ES_Initialize
                0x9d013b88                ES_Run
                0x9d013cb0                ES_PostAll
                0x9d013d94                ES_PostToService
                0x9d013e48                ES_PostToServiceLIFO
 .text          0x9d013efc      0x49c build/FrameworkWith_u8g2/production/ProjectSource/dbprintf.o
                0x9d013efc                DB_printf

.text           0x9d014398      0x8cc
 .text          0x9d014398      0x468 build/FrameworkWith_u8g2/production/u8g2/u8g2_ll_hvline.o
                0x9d014398                u8g2_ll_hvline_vertical_top_lsb
                0x9d0145f0                u8g2_ll_hvline_horizontal_right_lsb
 .text          0x9d014800      0x464 /Applications/microchip/xc32/v2.50/bin/bin/../../lib/gcc/pic32mx/4.8.3/libgcc.a(_umoddi3.o)
                0x9d014800                __umoddi3

.text           0x9d014c64      0x894
 .text          0x9d014c64      0x458 /Applications/microchip/xc32/v2.50/bin/bin/../../lib/gcc/pic32mx/4.8.3/libgcc.a(_udivdi3.o)
                0x9d014c64                __udivdi3
 .text          0x9d0150bc      0x43c build/FrameworkWith_u8g2/production/FrameworkSource/ES_Timers.o
                0x9d0150bc                ES_Timer_Init
                0x9d0150f4                ES_Timer_SetTimer
                0x9d01518c                ES_Timer_StartTimer
                0x9d01521c                ES_Timer_StopTimer
                0x9d0152a0                ES_Timer_InitTimer
                0x9d015360                ES_Timer_GetTime
                0x9d015390                ES_Timer_Tick_Resp

.text.dp32subadd
                0x9d0154f8      0x430
 .text.dp32subadd
                0x9d0154f8      0x430 /Applications/microchip/xc32/v2.50/bin/bin/../../lib/gcc/pic32mx/4.8.3/../../../../pic32mx/lib/libm.a(dp32subadd.o)
                0x9d0154f8                dpsub
                0x9d0154f8                __subdf3
                0x9d015500                __adddf3
                0x9d015500                dpadd

.text           0x9d015928      0x758
 .text          0x9d015928      0x3bc build/FrameworkWith_u8g2/production/ProjectSource/joystickHelpers.o
                0x9d015928                initJoystick
                0x9d015b44                retrieveJoystickInfo
 .text          0x9d015ce4      0x39c build/FrameworkWith_u8g2/production/FrameworkSource/ES_Queue.o
                0x9d015ce4                ES_InitQueue
                0x9d015d44                ES_EnQueueFIFO
                0x9d015e20                ES_EnQueueLIFO
                0x9d015f20                ES_DeQueue
                0x9d016044                ES_IsQueueEmpty

.text           0x9d016080      0x664
 .text          0x9d016080      0x334 build/FrameworkWith_u8g2/production/FrameworkSource/ES_Port.o
                0x9d016080                _HW_PIC32Init
                0x9d0160b0                _HW_Timer_Init
                0x9d016174                _HW_SysTickIntHandler
                0x9d0162fc                _HW_GetTickCount
                0x9d016324                _HW_Process_Pending_Ints
                0x9d016384                _HW_ConsoleInit
 .text          0x9d0163b4      0x330 build/FrameworkWith_u8g2/production/ProjectSource/OLEDService.o
                0x9d0163b4                InitOLEDService
                0x9d016440                PostOLEDService
                0x9d016488                RunOLEDService

.dinit          0x9d0166e4      0x330
 .dinit         0x9d0166e4      0x330 data_init

.text.dp32mul   0x9d016a14      0x32c
 .text.dp32mul  0x9d016a14      0x32c /Applications/microchip/xc32/v2.50/bin/bin/../../lib/gcc/pic32mx/4.8.3/../../../../pic32mx/lib/libm.a(dp32mul.o)
                0x9d016a14                dpmul
                0x9d016a14                __muldf3

.text.libm      0x9d016d40      0x328
 .text.libm     0x9d016d40      0x328 /Applications/microchip/xc32/v2.50/bin/bin/../../lib/gcc/pic32mx/4.8.3/../../../../pic32mx/lib/libm.a(dpsqrt.o)
                0x9d016d40                sqrt
                0x9d016d40                __mchp_sqrt
                0x9d016d40                dpsqrt

.text           0x9d017068      0x2a4
 .text          0x9d017068      0x2a4 build/FrameworkWith_u8g2/production/u8g2/u8g2_kerning.o
                0x9d017068                u8g2_GetKerning
                0x9d01720c                u8g2_GetKerningByTable

.text.exsqrt    0x9d01730c      0x29c
 .text.exsqrt   0x9d01730c      0x29c /Applications/microchip/xc32/v2.50/bin/bin/../../lib/gcc/pic32mx/4.8.3/../../../../pic32mx/lib/libm.a(exsqrt.o)
                0x9d01730c                exsqrt

.text           0x9d0175a8      0x4f0
 .text          0x9d0175a8      0x284 build/FrameworkWith_u8g2/production/u8g2/u8g2_pic32mz.o
                0x9d0175a8                u8x8_pic32_gpio_and_delay
                0x9d0176e8                u8x8_byte_pic32_hw_spi
 .text          0x9d01782c      0x26c build/FrameworkWith_u8g2/production/u8g2/spi_master.o
                0x9d01782c                SPI_Init
                0x9d0179c8                SPI_Tx
                0x9d017a1c                SPI_TxBuffer

.text.fp32div   0x9d017a98      0x230
 .text.fp32div  0x9d017a98      0x230 /Applications/microchip/xc32/v2.50/bin/bin/../../lib/gcc/pic32mx/4.8.3/../../../../pic32mx/lib/libm.a(fp32div.o)
                0x9d017a98                __divsf3
                0x9d017a98                fpdiv

.text           0x9d017cc8      0x400
 .text          0x9d017cc8      0x20c build/FrameworkWith_u8g2/production/FrameworkSource/terminal.o
                0x9d017cc8                Terminal_HWInit
                0x9d017de4                Terminal_ReadByte
                0x9d017e4c                Terminal_WriteByte
                0x9d017e9c                Terminal_IsRxData
 .text          0x9d017ed4      0x1f4 build/FrameworkWith_u8g2/production/u8g2/u8x8_setup.o
                0x9d017ed4                u8x8_dummy_cb
                0x9d017f10                u8x8_d_null_cb
                0x9d017fa4                u8x8_SetupDefaults
                0x9d018048                u8x8_Setup

.text           0x9d0180c8      0x1ec
 .text          0x9d0180c8      0x1ec build/FrameworkWith_u8g2/production/ProjectSource/PIC32_AD_Lib.o
                0x9d0180c8                ADC_ConfigAutoScan
                0x9d0181d0                ADC_MultiRead

.text.fp32mul   0x9d0182b4      0x1bc
 .text.fp32mul  0x9d0182b4      0x1bc /Applications/microchip/xc32/v2.50/bin/bin/../../lib/gcc/pic32mx/4.8.3/../../../../pic32mx/lib/libm.a(fp32mul.o)
                0x9d0182b4                __mulsf3
                0x9d0182b4                fpmul

.text.libm      0x9d018470      0x1b8
 .text.libm     0x9d018470      0x1b8 /Applications/microchip/xc32/v2.50/bin/bin/../../lib/gcc/pic32mx/4.8.3/../../../../pic32mx/lib/libm.a(reduct32.o)
                0x9d018470                reduct

.text           0x9d018628      0x1a4
 .text          0x9d018628      0x1a4 build/FrameworkWith_u8g2/production/ProjectSource/EventCheckers.o
                0x9d018628                Check4Keystroke

.text.libm      0x9d0187cc      0x1a4
 .text.libm     0x9d0187cc      0x1a4 /Applications/microchip/xc32/v2.50/bin/bin/../../lib/gcc/pic32mx/4.8.3/../../../../pic32mx/lib/libm.a(cos32.o)
                0x9d0187cc                cos
                0x9d0187cc                dpcos
                0x9d0187cc                cosl

.text           0x9d018970      0x328
 .text          0x9d018970      0x19c /Applications/microchip/xc32/v2.50/bin/bin/../../lib/gcc/pic32mx/4.8.3/../../../../pic32mx/lib/libm.a(sin32.o)
                0x9d018970                dpsin
                0x9d018970                sinl
                0x9d018970                sin
 .text          0x9d018b0c      0x18c build/FrameworkWith_u8g2/production/u8g2/u8g2_intersection.o
                0x9d018b0c                u8g2_is_intersection_decision_tree
                0x9d018bf0                u8g2_IsIntersection

.rodata         0x9d018c98      0x160
 .rodata        0x9d018c98      0x160 build/FrameworkWith_u8g2/production/ProjectSource/main.o

.text           0x9d018df8      0x15c
 .text          0x9d018df8      0x15c build/FrameworkWith_u8g2/production/ProjectSource/main.o
                0x9d018df8                main

.text._outcnvrt
                0x9d018f54      0x13c
 .text._outcnvrt
                0x9d018f54      0x13c /Applications/microchip/xc32/v2.50/bin/bin/../../lib/gcc/pic32mx/4.8.3/../../../../pic32mx/lib/liblega-c.a(_doprnt_cdfFnopuxX.eo)

.text           0x9d019090      0x138
 .text          0x9d019090      0x138 build/FrameworkWith_u8g2/production/u8g2/u8g2_d_setup.o
                0x9d019090                u8g2_Setup_ssd1306_128x64_noname_1
                0x9d01912c                u8g2_Setup_ssd1306_128x64_noname_f

.text.dpcmp     0x9d0191c8      0x12c
 .text.dpcmp    0x9d0191c8      0x12c /Applications/microchip/xc32/v2.50/bin/bin/../../lib/gcc/pic32mx/4.8.3/../../../../pic32mx/lib/libm.a(dpcmp.o)
                0x9d0191c8                __eqdf2
                0x9d0191c8                __gtdf2
                0x9d0191c8                __ltdf2
                0x9d0191c8                dpcmp
                0x9d0191c8                __ledf2
                0x9d0191c8                __nedf2
                0x9d0191c8                __gedf2

.rodata         0x9d0192f4      0x128
 .rodata        0x9d0192f4      0x128 build/FrameworkWith_u8g2/production/u8g2/u8x8_d_ssd1306_128x64_noname.o

.text.libm      0x9d01941c      0x22c
 .text.libm     0x9d01941c      0x120 /Applications/microchip/xc32/v2.50/bin/bin/../../lib/gcc/pic32mx/4.8.3/../../../../pic32mx/lib/libm.a(dpmodf.o)
                0x9d01941c                modfl
                0x9d01941c                modf
                0x9d01941c                dpmodf
 .text.libm     0x9d01953c      0x10c /Applications/microchip/xc32/v2.50/bin/bin/../../lib/gcc/pic32mx/4.8.3/../../../../pic32mx/lib/libm.a(sigmax.o)
                0x9d01953c                sigmax

.text.dptofp    0x9d019648      0x100
 .text.dptofp   0x9d019648      0x100 /Applications/microchip/xc32/v2.50/bin/bin/../../lib/gcc/pic32mx/4.8.3/../../../../pic32mx/lib/libm.a(dptofp.o)
                0x9d019648                dptofp
                0x9d019648                __truncdfsf2

.text._flsbuf_simple
                0x9d019748       0xfc
 .text._flsbuf_simple
                0x9d019748       0xfc /Applications/microchip/xc32/v2.50/bin/bin/../../lib/gcc/pic32mx/4.8.3/../../../../pic32mx/lib/liblega-c.a(_iobfuncs.o)
                0x9d019748                _flsbuf_simple

.text._mon_getc
                0x9d019844       0xf0
 .text._mon_getc
                0x9d019844       0xf0 /Applications/microchip/xc32/v2.50/bin/bin/../../lib/gcc/pic32mx/4.8.3/../../../../pic32mx/lib/libpic32.a(_mon_getc.o)
                0x9d019844                _mon_getc

.text.general_exception
                0x9d019934       0xdc
 .text.general_exception
                0x9d019934       0xdc /Applications/microchip/xc32/v2.50/bin/bin/../../lib/gcc/pic32mx/4.8.3/../../../../pic32mx/lib/libpic32.a(general-exception.o)
                0x9d019934                _general_exception_context

.text._mon_putc
                0x9d019a10       0xd8
 .text._mon_putc
                0x9d019a10       0xd8 /Applications/microchip/xc32/v2.50/bin/bin/../../lib/gcc/pic32mx/4.8.3/../../../../pic32mx/lib/libpic32.a(_mon_putc.o)
                0x9d019a10                _mon_putc

.rodata         0x9d019ae8       0xd0
 .rodata        0x9d019ae8       0xd0 build/FrameworkWith_u8g2/production/ProjectSource/TVS.o

.text.libm      0x9d019bb8       0xd0
 .text.libm     0x9d019bb8       0xd0 /Applications/microchip/xc32/v2.50/bin/bin/../../lib/gcc/pic32mx/4.8.3/../../../../pic32mx/lib/libm.a(exmul.o)
                0x9d019bb8                exmul

.text           0x9d019c88       0xbc
 .text          0x9d019c88       0xbc build/FrameworkWith_u8g2/production/FrameworkSource/ES_LookupTables.o
                0x9d019c88                ES_GetMSBitSet

.text.fputc     0x9d019d44       0xac
 .text.fputc    0x9d019d44       0xac /Applications/microchip/xc32/v2.50/bin/bin/../../lib/gcc/pic32mx/4.8.3/../../../../pic32mx/lib/liblega-c.a(fputc.o)
                0x9d019d44                fputc

.text.fptodp    0x9d019df0       0xac
 .text.fptodp   0x9d019df0       0xac /Applications/microchip/xc32/v2.50/bin/bin/../../lib/gcc/pic32mx/4.8.3/../../../../pic32mx/lib/libm.a(fptodp.o)
                0x9d019df0                __extendsfdf2
                0x9d019df0                fptodp

.text           0x9d019e9c       0xa8
 .text          0x9d019e9c       0xa8 /Applications/microchip/xc32/v2.50/bin/bin/../../lib/gcc/pic32mx/4.8.3/../../../../pic32mx/lib/libpic32.a(memset.o)
                0x9d019e9c                memset

.text.repl      0x9d019f44       0x9c
 .text.repl     0x9d019f44       0x9c /Applications/microchip/xc32/v2.50/bin/bin/../../lib/gcc/pic32mx/4.8.3/../../../../pic32mx/lib/liblega-c.a(_doprnt_cdfFnopuxX.eo)

.text.fpcmp     0x9d019fe0       0x9c
 .text.fpcmp    0x9d019fe0       0x9c /Applications/microchip/xc32/v2.50/bin/bin/../../lib/gcc/pic32mx/4.8.3/../../../../pic32mx/lib/libm.a(fpcmp.o)
                0x9d019fe0                __lesf2
                0x9d019fe0                __nesf2
                0x9d019fe0                __gtsf2
                0x9d019fe0                __eqsf2
                0x9d019fe0                __ltsf2
                0x9d019fe0                fpcmp
                0x9d019fe0                __gesf2

.text.strlen    0x9d01a07c       0x94
 .text.strlen   0x9d01a07c       0x94 /Applications/microchip/xc32/v2.50/bin/bin/../../lib/gcc/pic32mx/4.8.3/../../../../pic32mx/lib/liblega-c.a(strlen.o)
                0x9d01a07c                strlen

.text.dptoli    0x9d01a110       0x90
 .text.dptoli   0x9d01a110       0x90 /Applications/microchip/xc32/v2.50/bin/bin/../../lib/gcc/pic32mx/4.8.3/../../../../pic32mx/lib/libm.a(dptoli.o)
                0x9d01a110                __fixdfsi
                0x9d01a110                dptoli

.text           0x9d01a1a0      0x110
 .text          0x9d01a1a0       0x8c build/FrameworkWith_u8g2/production/FrameworkSource/ES_CheckEvents.o
                0x9d01a1a0                ES_CheckUserEvents
 .text          0x9d01a22c       0x84 /Applications/microchip/xc32/v2.50/bin/bin/../../lib/gcc/pic32mx/4.8.3/../../../../pic32mx/lib/libpic32.a(pic32_data_init.o)
                0x9d01a22c                __pic32_data_init

.text.sqrtl     0x9d01a2b0       0x84
 .text.sqrtl    0x9d01a2b0       0x84 /Applications/microchip/xc32/v2.50/bin/bin/../../lib/gcc/pic32mx/4.8.3/../../../../pic32mx/lib/libm.a(w_sqrt.o)
                0x9d01a2b0                sqrtl

.text._fflush_simple
                0x9d01a334       0x80
 .text._fflush_simple
                0x9d01a334       0x80 /Applications/microchip/xc32/v2.50/bin/bin/../../lib/gcc/pic32mx/4.8.3/../../../../pic32mx/lib/liblega-c.a(_iobfuncs.o)
                0x9d01a334                _fflush_simple

.text._fwrite_simple
                0x9d01a3b4       0x80
 .text._fwrite_simple
                0x9d01a3b4       0x80 /Applications/microchip/xc32/v2.50/bin/bin/../../lib/gcc/pic32mx/4.8.3/../../../../pic32mx/lib/liblega-c.a(_iobfuncs.o)
                0x9d01a3b4                _fwrite_simple

.text.fptoli    0x9d01a434       0x80
 .text.fptoli   0x9d01a434       0x80 /Applications/microchip/xc32/v2.50/bin/bin/../../lib/gcc/pic32mx/4.8.3/../../../../pic32mx/lib/libm.a(fptoli.o)
                0x9d01a434                __fixsfsi
                0x9d01a434                fptoli
                0x9d01a434                fptosi

.text.fptoul    0x9d01a4b4       0x7c
 .text.fptoul   0x9d01a4b4       0x7c /Applications/microchip/xc32/v2.50/bin/bin/../../lib/gcc/pic32mx/4.8.3/../../../../pic32mx/lib/libm.a(fptoul.o)
                0x9d01a4b4                fptoui
                0x9d01a4b4                __fixunssfsi
                0x9d01a4b4                fptoul

.rodata         0x9d01a530       0x78
 .rodata        0x9d01a530       0x78 /Applications/microchip/xc32/v2.50/bin/bin/../../lib/gcc/pic32mx/4.8.3/../../../../pic32mx/lib/liblega-c.a(_doprnt_cdfFnopuxX.eo)

.text.litodp    0x9d01a5a8       0x78
 .text.litodp   0x9d01a5a8       0x78 /Applications/microchip/xc32/v2.50/bin/bin/../../lib/gcc/pic32mx/4.8.3/../../../../pic32mx/lib/libm.a(litodp.o)
                0x9d01a5a8                __floatsidf
                0x9d01a5a8                litodp

.rodata         0x9d01a620       0x74
 .rodata        0x9d01a620       0x74 build/FrameworkWith_u8g2/production/ProjectSource/OPAMP.o

.text           0x9d01a694       0x70
 .text          0x9d01a694       0x70 build/FrameworkWith_u8g2/production/u8g2/u8g2_d_memory.o
                0x9d01a694                u8g2_m_16_8_1
                0x9d01a6cc                u8g2_m_16_8_f

.text.__sputn   0x9d01a704       0x68
 .text.__sputn  0x9d01a704       0x68 /Applications/microchip/xc32/v2.50/bin/bin/../../lib/gcc/pic32mx/4.8.3/../../../../pic32mx/lib/liblega-c.a(_doprnt_cdfFnopuxX.eo)

.text           0x9d01a76c       0x60
 .text          0x9d01a76c       0x60 build/FrameworkWith_u8g2/production/u8g2/u8x8_gpio.o
                0x9d01a76c                u8x8_gpio_call

.text.sitofp    0x9d01a7cc       0x60
 .text.sitofp   0x9d01a7cc       0x60 /Applications/microchip/xc32/v2.50/bin/bin/../../lib/gcc/pic32mx/4.8.3/../../../../pic32mx/lib/libm.a(sitofp.o)
                0x9d01a7cc                sitofp
                0x9d01a7cc                __floatsisf
                0x9d01a7cc                litofp

.text.fputs     0x9d01a82c       0x58
 .text.fputs    0x9d01a82c       0x58 /Applications/microchip/xc32/v2.50/bin/bin/../../lib/gcc/pic32mx/4.8.3/../../../../pic32mx/lib/liblega-c.a(fputs.o)
                0x9d01a82c                fputs

.text.main_entry
                0x9d01a884       0x54
 .text.main_entry
                0x9d01a884       0x54 /var/folders/0c/nzpv5tdd6fd7x9vsgqwt8kmc0000gn/T//ccdT9R1U.o
                0x9d01a8b8                __crt0_exit

.rodata         0x9d01a8d8       0x50
 .rodata        0x9d01a8d8       0x50 build/FrameworkWith_u8g2/production/FrameworkSource/ES_Framework.o

.text.puts      0x9d01a928       0x4c
 .text.puts     0x9d01a928       0x4c /Applications/microchip/xc32/v2.50/bin/bin/../../lib/gcc/pic32mx/4.8.3/../../../../pic32mx/lib/liblega-c.a(fputs.o)
                0x9d01a928                puts

.text._mon_write
                0x9d01a974       0x4c
 .text._mon_write
                0x9d01a974       0x4c /Applications/microchip/xc32/v2.50/bin/bin/../../lib/gcc/pic32mx/4.8.3/../../../../pic32mx/lib/libpic32.a(_mon_write.o)
                0x9d01a974                _mon_write

.text._bootstrap_exception_handler
                0x9d01a9c0       0x48
 .text._bootstrap_exception_handler
                0x9d01a9c0       0x48 /Applications/microchip/xc32/v2.50/bin/bin/../../lib/gcc/pic32mx/4.8.3/../../../../pic32mx/lib/libpic32.a(default-bootstrap-exception-handler.o)
                0x9d01a9c0                _bootstrap_exception_handler

.text._general_exception_handler
                0x9d01aa08       0x48
 .text._general_exception_handler
                0x9d01aa08       0x48 /Applications/microchip/xc32/v2.50/bin/bin/../../lib/gcc/pic32mx/4.8.3/../../../../pic32mx/lib/libpic32.a(default-general-exception-handler.o)
                0x9d01aa08                _general_exception_handler

.vector_default
                0x9d01aa50       0x48
 .vector_default
                0x9d01aa50       0x48 /Applications/microchip/xc32/v2.50/bin/bin/../../lib/gcc/pic32mx/4.8.3/../../../../pic32mx/lib/libpic32.a(defaultinterrupt.o)
                0x9d01aa50                _DefaultInterrupt

.text           0x9d01aa98       0x88
 .text          0x9d01aa98       0x44 /Applications/microchip/xc32/v2.50/bin/bin/../../lib/gcc/pic32mx/4.8.3/../../../../pic32mx/lib/pic32_software_reset.o
                0x9d01aa98                __pic32_software_reset
 .text          0x9d01aadc       0x44 /Applications/microchip/xc32/v2.50/bin/bin/../../lib/gcc/pic32mx/4.8.3/libgcc.a(floatunsidf.o)
                0x9d01aadc                __floatunsidf

.rodata         0x9d01ab20       0x80
 .rodata        0x9d01ab20       0x40 build/FrameworkWith_u8g2/production/FrameworkSource/ES_Timers.o
 .rodata        0x9d01ab60       0x40 build/FrameworkWith_u8g2/production/ProjectSource/Comms.o

.rodata         0x9d01aba0       0x40
 .rodata        0x9d01aba0       0x40 build/FrameworkWith_u8g2/production/ProjectSource/ZENER.o

.text._printf_cdfFnopuxX
                0x9d01abe0       0x40
 .text._printf_cdfFnopuxX
                0x9d01abe0       0x40 /Applications/microchip/xc32/v2.50/bin/bin/../../lib/gcc/pic32mx/4.8.3/../../../../pic32mx/lib/liblega-c.a(printf_cdfFnopuxX.eo)
                0x9d01abe0                _printf_fF
                0x9d01abe0                _printf_cdfFnopuxX
                0x9d01abe0                _printf_cdnopuxX

.rodata         0x9d01ac20       0x70
 .rodata        0x9d01ac20       0x3c build/FrameworkWith_u8g2/production/u8g2/u8g2_setup.o
                0x9d01ac20                u8g2_cb_r0
                0x9d01ac2c                u8g2_cb_r1
                0x9d01ac38                u8g2_cb_r2
                0x9d01ac44                u8g2_cb_r3
                0x9d01ac50                u8g2_cb_mirror
 .rodata        0x9d01ac5c       0x34 build/FrameworkWith_u8g2/production/ProjectSource/OLEDService.o

.text._filbuf_simple
                0x9d01ac90       0x34
 .text._filbuf_simple
                0x9d01ac90       0x34 /Applications/microchip/xc32/v2.50/bin/bin/../../lib/gcc/pic32mx/4.8.3/../../../../pic32mx/lib/liblega-c.a(_iobfuncs.o)
                0x9d01ac90                _filbuf_simple

.rodata         0x9d01acc4       0x30
 .rodata        0x9d01acc4       0x30 build/FrameworkWith_u8g2/production/FrameworkSource/ES_LookupTables.o
                0x9d01acc4                BitNum2SetMask
                0x9d01ace4                Nybble2MSBitNum

.text._fsync_simple
                0x9d01acf4       0x30
 .text._fsync_simple
                0x9d01acf4       0x30 /Applications/microchip/xc32/v2.50/bin/bin/../../lib/gcc/pic32mx/4.8.3/../../../../pic32mx/lib/liblega-c.a(_iobfuncs.o)
                0x9d01acf4                _fsync_simple

.rodata         0x9d01ad24       0x34
 .rodata        0x9d01ad24       0x1c build/FrameworkWith_u8g2/production/ProjectSource/dbprintf.o
 .rodata        0x9d01ad40       0x18 build/FrameworkWith_u8g2/production/u8g2/u8x8_setup.o

.text           0x9d01ad58       0x18
 .text          0x9d01ad58       0x18 /Applications/microchip/xc32/v2.50/bin/bin/../../lib/gcc/pic32mx/4.8.3/../../../../pic32mx/lib/libpic32.a(default-nmi-handler.o)
                0x9d01ad58                _nmi_handler

.rodata         0x9d01ad70       0x1c
 .rodata        0x9d01ad70       0x14 /Applications/microchip/xc32/v2.50/bin/bin/../../lib/gcc/pic32mx/4.8.3/../../../../pic32mx/lib/liblega-c.a(_iobdata.o)
                0x9d01ad70                _io_funcs
 .rodata        0x9d01ad84        0x8 build/FrameworkWith_u8g2/production/u8g2/u8x8_display.o

.rodata         0x9d01ad90        0x8
 .rodata        0x9d01ad90        0x8 /Applications/microchip/xc32/v2.50/bin/bin/../../lib/gcc/pic32mx/4.8.3/libgcc.a(floatunsidf.o)

.text._on_reset
                0x9d01ad98        0x8
 .text._on_reset
                0x9d01ad98        0x8 /Applications/microchip/xc32/v2.50/bin/bin/../../lib/gcc/pic32mx/4.8.3/../../../../pic32mx/lib/libpic32.a(default-on-reset.o)
                0x9d01ad98                _on_reset

.text._on_bootstrap
                0x9d01ada0        0x8
 .text._on_bootstrap
                0x9d01ada0        0x8 /Applications/microchip/xc32/v2.50/bin/bin/../../lib/gcc/pic32mx/4.8.3/../../../../pic32mx/lib/libpic32.a(default-on-bootstrap.o)
                0x9d01ada0                _on_bootstrap

.rodata         0x9d01ad8c        0x4
 .rodata        0x9d01ad8c        0x4 /Applications/microchip/xc32/v2.50/bin/bin/../../lib/gcc/pic32mx/4.8.3/../../../../pic32mx/lib/liblega-c.a(fputs.o)
